(lp0
(dp1
S'deviation'
p2
cnumpy.core.multiarray
scalar
p3
(cnumpy
dtype
p4
(S'f8'
p5
I0
I1
tp6
Rp7
(I3
S'<'
p8
NNNI-1
I-1
I0
tp9
bS'/\xf3\x84D\xac\x83\x11@'
p10
tp11
Rp12
sS'Y'
p13
I244
sS'height'
p14
I29
sS'width'
p15
I29
sS'points'
p16
(lp17
(I351
I244
tp18
a(I351
I245
tp19
a(I350
I246
tp20
a(I351
I246
tp21
a(I352
I246
tp22
a(I349
I247
tp23
a(I350
I247
tp24
a(I351
I247
tp25
a(I352
I247
tp26
a(I353
I246
tp27
a(I353
I247
tp28
a(I348
I247
tp29
a(I351
I248
tp30
a(I352
I248
tp31
a(I353
I248
tp32
a(I354
I246
tp33
a(I354
I247
tp34
a(I354
I248
tp35
a(I347
I247
tp36
a(I350
I249
tp37
a(I354
I249
tp38
a(I355
I246
tp39
a(I355
I247
tp40
a(I355
I248
tp41
a(I355
I249
tp42
a(I346
I247
tp43
a(I349
I250
tp44
a(I355
I250
tp45
a(I356
I247
tp46
a(I356
I248
tp47
a(I356
I249
tp48
a(I356
I250
tp49
a(I345
I247
tp50
a(I345
I248
tp51
a(I348
I251
tp52
a(I356
I251
tp53
a(I357
I248
tp54
a(I357
I249
tp55
a(I357
I250
tp56
a(I357
I251
tp57
a(I344
I247
tp58
a(I344
I248
tp59
a(I356
I252
tp60
a(I357
I252
tp61
a(I358
I248
tp62
a(I358
I249
tp63
a(I358
I250
tp64
a(I358
I251
tp65
a(I343
I247
tp66
a(I343
I248
tp67
a(I356
I253
tp68
a(I357
I253
tp69
a(I358
I253
tp70
a(I359
I249
tp71
a(I342
I247
tp72
a(I342
I248
tp73
a(I356
I254
tp74
a(I357
I254
tp75
a(I359
I253
tp76
a(I360
I250
tp77
a(I341
I247
tp78
a(I341
I248
tp79
a(I355
I255
tp80
a(I356
I255
tp81
a(I357
I255
tp82
a(I358
I255
tp83
a(I361
I249
tp84
a(I340
I247
tp85
a(I340
I248
tp86
a(I354
I255
tp87
a(I354
I256
tp88
a(I355
I256
tp89
a(I356
I256
tp90
a(I357
I256
tp91
a(I358
I256
tp92
a(I359
I255
tp93
a(I359
I256
tp94
a(I362
I248
tp95
a(I339
I246
tp96
a(I339
I248
tp97
a(I354
I257
tp98
a(I355
I257
tp99
a(I356
I257
tp100
a(I357
I257
tp101
a(I358
I257
tp102
a(I359
I257
tp103
a(I338
I245
tp104
a(I338
I246
tp105
a(I339
I245
tp106
a(I340
I245
tp107
a(I338
I248
tp108
a(I356
I258
tp109
a(I357
I258
tp110
a(I358
I258
tp111
a(I359
I258
tp112
a(I337
I245
tp113
a(I337
I246
tp114
a(I341
I245
tp115
a(I337
I248
tp116
a(I357
I259
tp117
a(I358
I259
tp118
a(I359
I259
tp119
a(I336
I245
tp120
a(I336
I246
tp121
a(I342
I245
tp122
a(I357
I260
tp123
a(I358
I260
tp124
a(I359
I260
tp125
a(I335
I245
tp126
a(I335
I246
tp127
a(I343
I245
tp128
a(I357
I261
tp129
a(I358
I261
tp130
a(I359
I261
tp131
a(I334
I245
tp132
a(I334
I246
tp133
a(I344
I245
tp134
a(I356
I262
tp135
a(I357
I262
tp136
a(I358
I262
tp137
a(I359
I262
tp138
a(I333
I245
tp139
a(I333
I246
tp140
a(I345
I245
tp141
a(I356
I263
tp142
a(I357
I263
tp143
a(I358
I263
tp144
a(I359
I263
tp145
a(I346
I245
tp146
a(I356
I264
tp147
a(I357
I264
tp148
a(I358
I264
tp149
a(I359
I264
tp150
a(I347
I245
tp151
a(I357
I265
tp152
a(I358
I265
tp153
a(I359
I265
tp154
a(I348
I245
tp155
a(I357
I266
tp156
a(I358
I266
tp157
a(I359
I266
tp158
a(I349
I245
tp159
a(I357
I267
tp160
a(I358
I267
tp161
a(I359
I267
tp162
a(I357
I268
tp163
a(I358
I268
tp164
a(I359
I268
tp165
a(I357
I269
tp166
a(I358
I269
tp167
a(I359
I269
tp168
a(I357
I270
tp169
a(I358
I270
tp170
a(I359
I270
tp171
a(I357
I271
tp172
a(I358
I271
tp173
a(I359
I271
tp174
a(I357
I272
tp175
a(I358
I272
tp176
a(I359
I272
tp177
a(I357
I273
tp178
asS'variance'
p179
g3
(g7
S'"H\xbb\xad\t,3@'
p180
tp181
Rp182
sS'X2'
p183
I362
sS'X'
p184
I333
sS'Y2'
p185
I273
sS'mean'
p186
g3
(g7
S'\xbd\xe9Moz\xd3\x13@'
p187
tp188
Rp189
sa(dp190
g2
g3
(g7
S'@\x10q\xb7,8\xf5?'
p191
tp192
Rp193
sg13
I263
sg14
I11
sg15
I19
sg16
(lp194
(I344
I263
tp195
a(I343
I264
tp196
a(I344
I264
tp197
a(I342
I264
tp198
a(I345
I265
tp199
a(I341
I264
tp200
a(I341
I265
tp201
a(I346
I266
tp202
a(I340
I265
tp203
a(I347
I267
tp204
a(I339
I266
tp205
a(I338
I265
tp206
a(I338
I266
tp207
a(I339
I265
tp208
a(I339
I267
tp209
a(I340
I266
tp210
a(I340
I267
tp211
a(I337
I266
tp212
a(I339
I268
tp213
a(I340
I268
tp214
a(I336
I266
tp215
a(I339
I269
tp216
a(I340
I269
tp217
a(I335
I266
tp218
a(I339
I270
tp219
a(I340
I270
tp220
a(I334
I266
tp221
a(I334
I267
tp222
a(I339
I271
tp223
a(I340
I271
tp224
a(I333
I267
tp225
a(I338
I272
tp226
a(I339
I272
tp227
a(I332
I267
tp228
a(I337
I272
tp229
a(I338
I273
tp230
a(I340
I273
tp231
a(I331
I267
tp232
a(I331
I268
tp233
a(I336
I272
tp234
a(I341
I273
tp235
a(I330
I268
tp236
a(I330
I269
tp237
a(I331
I269
tp238
a(I335
I272
tp239
a(I342
I273
tp240
a(I342
I274
tp241
a(I329
I268
tp242
a(I329
I269
tp243
a(I329
I270
tp244
a(I330
I270
tp245
a(I334
I272
tp246
a(I343
I274
tp247
a(I328
I269
tp248
a(I328
I270
tp249
a(I329
I271
tp250
a(I330
I271
tp251
a(I331
I271
tp252
a(I333
I271
tp253
a(I333
I272
tp254
a(I344
I274
tp255
a(I332
I271
tp256
asg179
g3
(g7
S'>\xdb\t\x9b:$\xfc?'
p257
tp258
Rp259
sg183
I347
sg184
I328
sg185
I274
sg186
g3
(g7
S'k\xad\xb5\xd6Zk\x01@'
p260
tp261
Rp262
sa(dp263
g2
g3
(g7
S'\x91\xa4x\xc6\xeb\xe4\xe8?'
p264
tp265
Rp266
sg13
I302
sg14
I11
sg15
I22
sg16
(lp267
(I323
I302
tp268
a(I323
I303
tp269
a(I323
I304
tp270
a(I323
I305
tp271
a(I323
I306
tp272
a(I323
I307
tp273
a(I323
I308
tp274
a(I324
I308
tp275
a(I324
I309
tp276
a(I323
I310
tp277
a(I324
I310
tp278
a(I323
I311
tp279
a(I324
I311
tp280
a(I325
I311
tp281
a(I323
I312
tp282
a(I324
I312
tp283
a(I325
I312
tp284
a(I326
I311
tp285
a(I326
I312
tp286
a(I323
I313
tp287
a(I327
I311
tp288
a(I328
I310
tp289
a(I328
I311
tp290
a(I329
I310
tp291
a(I329
I311
tp292
a(I330
I309
tp293
a(I330
I310
tp294
a(I331
I309
tp295
a(I331
I310
tp296
a(I332
I309
tp297
a(I332
I310
tp298
a(I333
I308
tp299
a(I333
I309
tp300
a(I334
I308
tp301
a(I334
I309
tp302
a(I335
I308
tp303
a(I336
I307
tp304
a(I336
I308
tp305
a(I337
I307
tp306
a(I337
I308
tp307
a(I338
I306
tp308
a(I338
I307
tp309
a(I339
I306
tp310
a(I340
I306
tp311
a(I341
I305
tp312
a(I341
I306
tp313
a(I342
I305
tp314
a(I342
I306
tp315
a(I343
I304
tp316
a(I343
I305
tp317
a(I344
I304
tp318
a(I344
I305
tp319
a(I345
I304
tp320
asg179
g3
(g7
S'\xdd]JP\xc7]\xe3?'
p321
tp322
Rp323
sg183
I345
sg184
I323
sg185
I313
sg186
g3
(g7
S'\xcb>\x87\xd4\x04\xe3\xfd?'
p324
tp325
Rp326
sa(dp327
g2
g3
(g7
S'-\xec\xcb\x1fi\xf8\xfb?'
p328
tp329
Rp330
sg13
I319
sg14
I11
sg15
I22
sg16
(lp331
(I323
I319
tp332
a(I323
I320
tp333
a(I323
I321
tp334
a(I324
I321
tp335
a(I323
I322
tp336
a(I324
I322
tp337
a(I323
I323
tp338
a(I324
I323
tp339
a(I323
I324
tp340
a(I324
I324
tp341
a(I323
I325
tp342
a(I324
I325
tp343
a(I323
I326
tp344
a(I324
I326
tp345
a(I323
I327
tp346
a(I324
I327
tp347
a(I323
I328
tp348
a(I324
I328
tp349
a(I325
I328
tp350
a(I323
I329
tp351
a(I324
I329
tp352
a(I325
I329
tp353
a(I326
I328
tp354
a(I326
I329
tp355
a(I324
I330
tp356
a(I325
I330
tp357
a(I327
I328
tp358
a(I327
I329
tp359
a(I323
I330
tp360
a(I328
I328
tp361
a(I328
I329
tp362
a(I329
I327
tp363
a(I329
I328
tp364
a(I330
I327
tp365
a(I330
I328
tp366
a(I331
I327
tp367
a(I332
I326
tp368
a(I332
I327
tp369
a(I333
I326
tp370
a(I333
I327
tp371
a(I334
I325
tp372
a(I334
I326
tp373
a(I335
I325
tp374
a(I335
I326
tp375
a(I336
I325
tp376
a(I337
I324
tp377
a(I337
I325
tp378
a(I338
I324
tp379
a(I339
I324
tp380
a(I340
I323
tp381
a(I340
I324
tp382
a(I341
I323
tp383
a(I342
I322
tp384
a(I342
I323
tp385
a(I343
I322
tp386
a(I343
I323
tp387
a(I344
I321
tp388
a(I344
I322
tp389
a(I345
I321
tp390
asg179
g3
(g7
S'"Pn\xc4\xb9r\x08@'
p391
tp392
Rp393
sg183
I345
sg184
I323
sg185
I330
sg186
g3
(g7
S"\r'u_\x1e[\x01@"
p394
tp395
Rp396
sa(dp397
g2
g3
(g7
S'\xa8]\x10mG\xea\x0b@'
p398
tp399
Rp400
sg13
I486
sg14
I26
sg15
I28
sg16
(lp401
(I506
I486
tp402
a(I507
I487
tp403
a(I508
I488
tp404
a(I509
I489
tp405
a(I510
I490
tp406
a(I511
I491
tp407
a(I512
I492
tp408
a(I513
I493
tp409
a(I514
I494
tp410
a(I514
I495
tp411
a(I515
I493
tp412
a(I515
I494
tp413
a(I515
I495
tp414
a(I514
I496
tp415
a(I515
I496
tp416
a(I515
I492
tp417
a(I516
I492
tp418
a(I516
I493
tp419
a(I516
I494
tp420
a(I516
I495
tp421
a(I516
I496
tp422
a(I514
I497
tp423
a(I515
I497
tp424
a(I516
I497
tp425
a(I515
I491
tp426
a(I516
I491
tp427
a(I517
I493
tp428
a(I517
I494
tp429
a(I517
I495
tp430
a(I517
I496
tp431
a(I517
I497
tp432
a(I514
I498
tp433
a(I515
I498
tp434
a(I516
I498
tp435
a(I517
I498
tp436
a(I518
I496
tp437
a(I518
I497
tp438
a(I514
I499
tp439
a(I515
I499
tp440
a(I516
I499
tp441
a(I517
I499
tp442
a(I519
I497
tp443
a(I519
I498
tp444
a(I514
I500
tp445
a(I515
I500
tp446
a(I516
I500
tp447
a(I520
I496
tp448
a(I520
I497
tp449
a(I520
I498
tp450
a(I520
I499
tp451
a(I515
I501
tp452
a(I515
I502
tp453
a(I515
I503
tp454
a(I516
I503
tp455
a(I514
I504
tp456
a(I515
I504
tp457
a(I516
I504
tp458
a(I517
I504
tp459
a(I514
I505
tp460
a(I515
I505
tp461
a(I516
I505
tp462
a(I517
I505
tp463
a(I518
I505
tp464
a(I514
I506
tp465
a(I515
I506
tp466
a(I516
I506
tp467
a(I517
I506
tp468
a(I518
I506
tp469
a(I519
I506
tp470
a(I514
I507
tp471
a(I515
I507
tp472
a(I516
I507
tp473
a(I517
I507
tp474
a(I518
I507
tp475
a(I519
I507
tp476
a(I520
I506
tp477
a(I520
I507
tp478
a(I514
I508
tp479
a(I515
I508
tp480
a(I516
I508
tp481
a(I517
I508
tp482
a(I518
I508
tp483
a(I519
I508
tp484
a(I520
I508
tp485
a(I514
I509
tp486
a(I515
I509
tp487
a(I516
I509
tp488
a(I517
I509
tp489
a(I518
I509
tp490
a(I519
I509
tp491
a(I520
I509
tp492
a(I521
I509
tp493
a(I515
I510
tp494
a(I516
I510
tp495
a(I517
I510
tp496
a(I518
I510
tp497
a(I519
I510
tp498
a(I520
I510
tp499
a(I521
I510
tp500
a(I522
I509
tp501
a(I522
I510
tp502
a(I517
I511
tp503
a(I519
I511
tp504
a(I520
I511
tp505
a(I521
I511
tp506
a(I522
I511
tp507
a(I523
I509
tp508
a(I523
I510
tp509
a(I523
I511
tp510
a(I519
I512
tp511
a(I520
I512
tp512
a(I521
I512
tp513
a(I524
I508
tp514
a(I524
I509
tp515
a(I524
I510
tp516
a(I524
I511
tp517
a(I525
I508
tp518
a(I525
I509
tp519
a(I525
I510
tp520
a(I525
I511
tp521
a(I526
I507
tp522
a(I526
I510
tp523
a(I526
I511
tp524
a(I527
I506
tp525
a(I527
I510
tp526
a(I528
I505
tp527
a(I528
I510
tp528
a(I529
I509
tp529
a(I530
I508
tp530
a(I530
I509
tp531
a(I530
I507
tp532
a(I531
I509
tp533
a(I531
I510
tp534
a(I532
I510
tp535
a(I530
I511
tp536
a(I532
I511
tp537
a(I533
I511
tp538
a(I529
I512
tp539
a(I534
I511
tp540
asg179
g3
(g7
S'\xd2\x1aF\xbd\x0bZ(@'
p541
tp542
Rp543
sg183
I534
sg184
I506
sg185
I512
sg186
g3
(g7
S'\xb8T\xb6w\x1d\xd0\x15@'
p544
tp545
Rp546
sa(dp547
g2
g3
(g7
S'J\xc2\xab`\x92>\x06@'
p548
tp549
Rp550
sg13
I612
sg14
I21
sg15
I44
sg16
(lp551
(I285
I612
tp552
a(I285
I613
tp553
a(I285
I614
tp554
a(I285
I615
tp555
a(I285
I616
tp556
a(I286
I616
tp557
a(I285
I617
tp558
a(I286
I617
tp559
a(I286
I618
tp560
a(I286
I619
tp561
a(I287
I619
tp562
a(I287
I620
tp563
a(I288
I618
tp564
a(I288
I620
tp565
a(I288
I621
tp566
a(I289
I617
tp567
a(I289
I619
tp568
a(I289
I621
tp569
a(I289
I622
tp570
a(I290
I618
tp571
a(I290
I620
tp572
a(I290
I622
tp573
a(I291
I617
tp574
a(I291
I619
tp575
a(I291
I621
tp576
a(I291
I623
tp577
a(I292
I616
tp578
a(I292
I618
tp579
a(I292
I620
tp580
a(I292
I623
tp581
a(I293
I615
tp582
a(I293
I619
tp583
a(I293
I624
tp584
a(I292
I614
tp585
a(I294
I616
tp586
a(I294
I619
tp587
a(I294
I620
tp588
a(I294
I624
tp589
a(I295
I617
tp590
a(I295
I623
tp591
a(I295
I625
tp592
a(I296
I618
tp593
a(I296
I622
tp594
a(I296
I625
tp595
a(I297
I619
tp596
a(I297
I626
tp597
a(I298
I620
tp598
a(I298
I626
tp599
a(I299
I619
tp600
a(I299
I620
tp601
a(I299
I626
tp602
a(I299
I618
tp603
a(I300
I618
tp604
a(I300
I619
tp605
a(I300
I620
tp606
a(I300
I625
tp607
a(I300
I627
tp608
a(I299
I617
tp609
a(I300
I617
tp610
a(I301
I618
tp611
a(I301
I619
tp612
a(I301
I620
tp613
a(I301
I627
tp614
a(I302
I620
tp615
a(I302
I627
tp616
a(I303
I619
tp617
a(I303
I628
tp618
a(I304
I618
tp619
a(I304
I619
tp620
a(I304
I620
tp621
a(I304
I628
tp622
a(I305
I618
tp623
a(I305
I619
tp624
a(I305
I620
tp625
a(I303
I621
tp626
a(I304
I621
tp627
a(I305
I621
tp628
a(I305
I628
tp629
a(I306
I619
tp630
a(I306
I620
tp631
a(I306
I621
tp632
a(I302
I621
tp633
a(I304
I622
tp634
a(I305
I622
tp635
a(I306
I622
tp636
a(I306
I628
tp637
a(I306
I629
tp638
a(I307
I619
tp639
a(I307
I620
tp640
a(I307
I621
tp641
a(I307
I622
tp642
a(I305
I623
tp643
a(I306
I623
tp644
a(I307
I623
tp645
a(I307
I629
tp646
a(I308
I619
tp647
a(I308
I620
tp648
a(I308
I621
tp649
a(I308
I622
tp650
a(I308
I623
tp651
a(I308
I629
tp652
a(I309
I619
tp653
a(I309
I620
tp654
a(I309
I621
tp655
a(I309
I622
tp656
a(I309
I623
tp657
a(I309
I629
tp658
a(I310
I619
tp659
a(I310
I620
tp660
a(I310
I621
tp661
a(I310
I622
tp662
a(I310
I623
tp663
a(I310
I628
tp664
a(I310
I629
tp665
a(I311
I620
tp666
a(I311
I621
tp667
a(I311
I622
tp668
a(I311
I623
tp669
a(I311
I624
tp670
a(I311
I630
tp671
a(I312
I620
tp672
a(I312
I621
tp673
a(I312
I622
tp674
a(I312
I623
tp675
a(I312
I624
tp676
a(I312
I630
tp677
a(I313
I620
tp678
a(I313
I621
tp679
a(I313
I622
tp680
a(I313
I623
tp681
a(I313
I624
tp682
a(I313
I630
tp683
a(I314
I620
tp684
a(I314
I621
tp685
a(I314
I624
tp686
a(I314
I630
tp687
a(I315
I621
tp688
a(I315
I623
tp689
a(I315
I631
tp690
a(I316
I621
tp691
a(I316
I622
tp692
a(I314
I631
tp693
a(I314
I632
tp694
a(I315
I632
tp695
a(I316
I631
tp696
a(I317
I621
tp697
a(I315
I633
tp698
a(I317
I631
tp699
a(I318
I630
tp700
a(I318
I631
tp701
a(I318
I629
tp702
a(I319
I629
tp703
a(I319
I630
tp704
a(I319
I631
tp705
a(I320
I630
tp706
a(I320
I631
tp707
a(I321
I632
tp708
a(I322
I632
tp709
a(I323
I631
tp710
a(I323
I632
tp711
a(I324
I631
tp712
a(I324
I632
tp713
a(I325
I633
tp714
a(I326
I633
tp715
a(I327
I632
tp716
a(I327
I633
tp717
a(I326
I631
tp718
a(I328
I631
tp719
a(I328
I633
tp720
a(I327
I630
tp721
a(I329
I633
tp722
asg179
g3
(g7
S'\xf5\xaf\x80=\x07\xed\x1e@'
p723
tp724
Rp725
sg183
I329
sg184
I285
sg185
I633
sg186
g3
(g7
S'\xd2\\Fs\x19\xcd\r@'
p726
tp727
Rp728
sa(dp729
g2
g3
(g7
S'\xd7\x19\x95\x03oM\x10@'
p730
tp731
Rp732
sg13
I689
sg14
I27
sg15
I30
sg16
(lp733
(I153
I689
tp734
a(I153
I690
tp735
a(I154
I690
tp736
a(I154
I691
tp737
a(I155
I689
tp738
a(I155
I691
tp739
a(I155
I692
tp740
a(I156
I692
tp741
a(I154
I693
tp742
a(I156
I693
tp743
a(I157
I691
tp744
a(I157
I692
tp745
a(I157
I693
tp746
a(I154
I694
tp747
a(I155
I693
tp748
a(I157
I694
tp749
a(I158
I691
tp750
a(I158
I692
tp751
a(I158
I693
tp752
a(I158
I694
tp753
a(I154
I695
tp754
a(I156
I695
tp755
a(I157
I695
tp756
a(I159
I692
tp757
a(I159
I694
tp758
a(I153
I696
tp759
a(I155
I696
tp760
a(I157
I696
tp761
a(I160
I693
tp762
a(I160
I694
tp763
a(I152
I695
tp764
a(I152
I696
tp765
a(I152
I697
tp766
a(I154
I697
tp767
a(I157
I697
tp768
a(I161
I694
tp769
a(I151
I695
tp770
a(I151
I696
tp771
a(I151
I697
tp772
a(I151
I698
tp773
a(I152
I698
tp774
a(I153
I698
tp775
a(I154
I698
tp776
a(I157
I698
tp777
a(I162
I695
tp778
a(I150
I696
tp779
a(I150
I697
tp780
a(I150
I698
tp781
a(I152
I699
tp782
a(I153
I699
tp783
a(I154
I699
tp784
a(I155
I699
tp785
a(I156
I699
tp786
a(I157
I699
tp787
a(I161
I696
tp788
a(I163
I696
tp789
a(I149
I695
tp790
a(I151
I700
tp791
a(I153
I700
tp792
a(I154
I700
tp793
a(I155
I700
tp794
a(I156
I700
tp795
a(I157
I700
tp796
a(I158
I700
tp797
a(I164
I696
tp798
a(I164
I697
tp799
a(I148
I695
tp800
a(I148
I696
tp801
a(I150
I701
tp802
a(I153
I701
tp803
a(I154
I701
tp804
a(I155
I701
tp805
a(I156
I701
tp806
a(I157
I701
tp807
a(I158
I701
tp808
a(I159
I701
tp809
a(I165
I697
tp810
a(I163
I698
tp811
a(I147
I696
tp812
a(I155
I702
tp813
a(I156
I702
tp814
a(I157
I702
tp815
a(I166
I698
tp816
a(I155
I703
tp817
a(I156
I703
tp818
a(I157
I703
tp819
a(I158
I703
tp820
a(I165
I699
tp821
a(I166
I699
tp822
a(I167
I699
tp823
a(I154
I704
tp824
a(I164
I700
tp825
a(I165
I700
tp826
a(I166
I700
tp827
a(I167
I700
tp828
a(I153
I703
tp829
a(I153
I705
tp830
a(I155
I705
tp831
a(I164
I701
tp832
a(I164
I699
tp833
a(I165
I701
tp834
a(I166
I701
tp835
a(I167
I701
tp836
a(I152
I705
tp837
a(I152
I706
tp838
a(I153
I706
tp839
a(I154
I706
tp840
a(I155
I706
tp841
a(I156
I705
tp842
a(I163
I702
tp843
a(I163
I699
tp844
a(I166
I702
tp845
a(I167
I702
tp846
a(I168
I702
tp847
a(I151
I705
tp848
a(I151
I706
tp849
a(I151
I707
tp850
a(I152
I707
tp851
a(I153
I707
tp852
a(I154
I707
tp853
a(I156
I707
tp854
a(I157
I705
tp855
a(I163
I703
tp856
a(I162
I698
tp857
a(I166
I703
tp858
a(I167
I703
tp859
a(I168
I703
tp860
a(I169
I703
tp861
a(I150
I705
tp862
a(I150
I706
tp863
a(I150
I707
tp864
a(I155
I708
tp865
a(I156
I708
tp866
a(I157
I707
tp867
a(I157
I708
tp868
a(I163
I704
tp869
a(I164
I704
tp870
a(I166
I704
tp871
a(I167
I704
tp872
a(I168
I704
tp873
a(I169
I704
tp874
a(I170
I704
tp875
a(I154
I709
tp876
a(I155
I709
tp877
a(I156
I709
tp878
a(I157
I709
tp879
a(I158
I707
tp880
a(I158
I708
tp881
a(I158
I709
tp882
a(I164
I705
tp883
a(I165
I705
tp884
a(I166
I705
tp885
a(I167
I705
tp886
a(I169
I705
tp887
a(I170
I705
tp888
a(I171
I705
tp889
a(I153
I709
tp890
a(I153
I710
tp891
a(I154
I710
tp892
a(I155
I710
tp893
a(I159
I707
tp894
a(I159
I708
tp895
a(I159
I709
tp896
a(I159
I710
tp897
a(I165
I706
tp898
a(I166
I706
tp899
a(I167
I706
tp900
a(I170
I706
tp901
a(I171
I706
tp902
a(I172
I706
tp903
a(I152
I709
tp904
a(I152
I710
tp905
a(I153
I711
tp906
a(I160
I707
tp907
a(I160
I708
tp908
a(I160
I709
tp909
a(I166
I707
tp910
a(I167
I707
tp911
a(I171
I707
tp912
a(I172
I707
tp913
a(I173
I707
tp914
a(I151
I709
tp915
a(I151
I710
tp916
a(I151
I711
tp917
a(I161
I707
tp918
a(I161
I708
tp919
a(I161
I709
tp920
a(I172
I708
tp921
a(I173
I708
tp922
a(I174
I708
tp923
a(I150
I709
tp924
a(I162
I706
tp925
a(I162
I707
tp926
a(I162
I708
tp927
a(I162
I709
tp928
a(I173
I709
tp929
a(I174
I709
tp930
a(I175
I709
tp931
a(I149
I710
tp932
a(I163
I708
tp933
a(I163
I709
tp934
a(I163
I710
tp935
a(I174
I710
tp936
a(I175
I710
tp937
a(I176
I710
tp938
a(I149
I711
tp939
a(I164
I709
tp940
a(I164
I710
tp941
a(I175
I711
tp942
a(I176
I711
tp943
a(I177
I711
tp944
a(I174
I712
tp945
a(I175
I712
tp946
a(I176
I712
tp947
a(I177
I712
tp948
a(I173
I712
tp949
a(I173
I713
tp950
a(I174
I713
tp951
a(I175
I713
tp952
a(I172
I712
tp953
a(I172
I713
tp954
a(I172
I714
tp955
a(I173
I714
tp956
a(I174
I714
tp957
a(I175
I714
tp958
a(I176
I714
tp959
a(I172
I715
tp960
a(I173
I715
tp961
a(I174
I715
tp962
a(I175
I715
tp963
a(I176
I715
tp964
a(I177
I714
tp965
a(I177
I715
tp966
a(I172
I716
tp967
a(I173
I716
tp968
a(I174
I716
tp969
a(I175
I716
tp970
a(I176
I716
tp971
a(I177
I716
tp972
asg179
g3
(g7
S'|\xf0\xae\xc6T\x9c0@'
p973
tp974
Rp975
sg183
I177
sg184
I147
sg185
I716
sg186
g3
(g7
S'\xfbJ\xe6gQ\x8c\x17@'
p976
tp977
Rp978
sa(dp979
g2
g3
(g7
S'?\xf9\x8f\xeb\x1eZ\x0c@'
p980
tp981
Rp982
sg13
I696
sg14
I20
sg15
I25
sg16
(lp983
(I253
I696
tp984
a(I252
I697
tp985
a(I253
I697
tp986
a(I251
I698
tp987
a(I254
I698
tp988
a(I251
I699
tp989
a(I253
I699
tp990
a(I254
I699
tp991
a(I255
I698
tp992
a(I255
I699
tp993
a(I256
I698
tp994
a(I256
I699
tp995
a(I257
I699
tp996
a(I258
I699
tp997
a(I258
I700
tp998
a(I257
I700
tp999
a(I259
I699
tp1000
a(I259
I700
tp1001
a(I257
I701
tp1002
a(I256
I701
tp1003
a(I260
I699
tp1004
a(I260
I700
tp1005
a(I257
I702
tp1006
a(I255
I701
tp1007
a(I257
I703
tp1008
a(I254
I701
tp1009
a(I254
I702
tp1010
a(I253
I701
tp1011
a(I253
I702
tp1012
a(I255
I703
tp1013
a(I252
I701
tp1014
a(I252
I702
tp1015
a(I256
I703
tp1016
a(I257
I704
tp1017
a(I258
I704
tp1018
a(I259
I704
tp1019
a(I259
I705
tp1020
a(I260
I704
tp1021
a(I260
I705
tp1022
a(I260
I706
tp1023
a(I261
I705
tp1024
a(I261
I706
tp1025
a(I261
I707
tp1026
a(I262
I705
tp1027
a(I262
I706
tp1028
a(I262
I707
tp1029
a(I262
I708
tp1030
a(I263
I705
tp1031
a(I263
I706
tp1032
a(I263
I707
tp1033
a(I263
I708
tp1034
a(I263
I709
tp1035
a(I264
I706
tp1036
a(I264
I707
tp1037
a(I264
I709
tp1038
a(I265
I706
tp1039
a(I265
I708
tp1040
a(I265
I709
tp1041
a(I265
I710
tp1042
a(I266
I708
tp1043
a(I266
I709
tp1044
a(I266
I710
tp1045
a(I266
I711
tp1046
a(I267
I709
tp1047
a(I267
I710
tp1048
a(I267
I711
tp1049
a(I267
I712
tp1050
a(I268
I709
tp1051
a(I268
I710
tp1052
a(I268
I711
tp1053
a(I268
I712
tp1054
a(I269
I710
tp1055
a(I269
I711
tp1056
a(I269
I712
tp1057
a(I269
I713
tp1058
a(I270
I710
tp1059
a(I270
I711
tp1060
a(I270
I712
tp1061
a(I270
I713
tp1062
a(I270
I714
tp1063
a(I271
I710
tp1064
a(I271
I711
tp1065
a(I271
I712
tp1066
a(I271
I713
tp1067
a(I271
I714
tp1068
a(I272
I709
tp1069
a(I272
I710
tp1070
a(I272
I711
tp1071
a(I272
I712
tp1072
a(I272
I714
tp1073
a(I272
I715
tp1074
a(I271
I708
tp1075
a(I272
I708
tp1076
a(I273
I708
tp1077
a(I273
I709
tp1078
a(I273
I710
tp1079
a(I273
I711
tp1080
a(I273
I712
tp1081
a(I273
I713
tp1082
a(I273
I714
tp1083
a(I273
I715
tp1084
a(I270
I707
tp1085
a(I270
I708
tp1086
a(I273
I707
tp1087
a(I274
I707
tp1088
a(I274
I714
tp1089
a(I274
I715
tp1090
a(I273
I706
tp1091
a(I275
I706
tp1092
a(I275
I714
tp1093
a(I275
I715
tp1094
a(I275
I716
tp1095
a(I272
I705
tp1096
a(I273
I705
tp1097
a(I276
I716
tp1098
a(I271
I704
tp1099
a(I272
I704
tp1100
a(I273
I704
tp1101
a(I270
I703
tp1102
a(I270
I704
tp1103
a(I271
I703
tp1104
a(I272
I703
tp1105
a(I273
I703
tp1106
a(I269
I702
tp1107
a(I269
I703
tp1108
a(I269
I704
tp1109
a(I268
I703
tp1110
a(I268
I704
tp1111
a(I267
I703
tp1112
a(I267
I704
tp1113
a(I266
I703
tp1114
a(I266
I704
tp1115
a(I265
I703
tp1116
a(I265
I704
tp1117
a(I264
I703
tp1118
a(I263
I703
tp1119
a(I262
I703
tp1120
a(I261
I703
tp1121
asg179
g3
(g7
S'|\xdeF\xea\xb3\x1e)@'
p1122
tp1123
Rp1124
sg183
I276
sg184
I251
sg185
I716
sg186
g3
(g7
S'\xe6\xda\x81\xb9v`\x12@'
p1125
tp1126
Rp1127
sa(dp1128
g2
g3
(g7
S'\xb3\xe4\xfc\xfd\xfd\xbe\x14@'
p1129
tp1130
Rp1131
sg13
I748
sg14
I15
sg15
I16
sg16
(lp1132
(I295
I748
tp1133
a(I294
I749
tp1134
a(I295
I749
tp1135
a(I296
I748
tp1136
a(I297
I749
tp1137
a(I297
I748
tp1138
a(I297
I750
tp1139
a(I298
I748
tp1140
a(I298
I749
tp1141
a(I298
I750
tp1142
a(I296
I751
tp1143
a(I297
I751
tp1144
a(I298
I751
tp1145
a(I299
I749
tp1146
a(I299
I750
tp1147
a(I299
I751
tp1148
a(I295
I751
tp1149
a(I295
I752
tp1150
a(I296
I752
tp1151
a(I297
I752
tp1152
a(I298
I752
tp1153
a(I299
I752
tp1154
a(I300
I750
tp1155
a(I300
I751
tp1156
a(I300
I752
tp1157
a(I295
I753
tp1158
a(I296
I753
tp1159
a(I297
I753
tp1160
a(I298
I753
tp1161
a(I299
I753
tp1162
a(I300
I753
tp1163
a(I301
I752
tp1164
a(I294
I754
tp1165
a(I301
I753
tp1166
a(I293
I755
tp1167
a(I292
I756
tp1168
a(I291
I757
tp1169
a(I290
I758
tp1170
a(I289
I759
tp1171
a(I288
I760
tp1172
a(I287
I761
tp1173
a(I286
I762
tp1174
a(I285
I763
tp1175
asg179
g3
(g7
S'\x16r\x08\xdbb\xe6:@'
p1176
tp1177
Rp1178
sg183
I301
sg184
I285
sg185
I763
sg186
g3
(g7
S'w\xc4\x1dqG\xdc\x19@'
p1179
tp1180
Rp1181
sa(dp1182
g2
g3
(g7
S'\x90\x81\x96h\xce\xe1\xf2?'
p1183
tp1184
Rp1185
sg13
I767
sg14
I11
sg15
I13
sg16
(lp1186
(I486
I767
tp1187
a(I487
I767
tp1188
a(I488
I767
tp1189
a(I489
I768
tp1190
a(I488
I769
tp1191
a(I489
I769
tp1192
a(I490
I769
tp1193
a(I487
I770
tp1194
a(I488
I770
tp1195
a(I489
I770
tp1196
a(I490
I770
tp1197
a(I491
I769
tp1198
a(I491
I770
tp1199
a(I486
I771
tp1200
a(I487
I771
tp1201
a(I489
I771
tp1202
a(I490
I771
tp1203
a(I491
I771
tp1204
a(I492
I770
tp1205
a(I492
I771
tp1206
a(I493
I770
tp1207
a(I493
I771
tp1208
a(I493
I772
tp1209
a(I494
I770
tp1210
a(I494
I771
tp1211
a(I494
I772
tp1212
a(I494
I773
tp1213
a(I495
I770
tp1214
a(I495
I771
tp1215
a(I495
I772
tp1216
a(I495
I773
tp1217
a(I494
I774
tp1218
a(I495
I774
tp1219
a(I496
I771
tp1220
a(I496
I772
tp1221
a(I496
I773
tp1222
a(I496
I774
tp1223
a(I494
I775
tp1224
a(I495
I775
tp1225
a(I497
I771
tp1226
a(I497
I772
tp1227
a(I497
I773
tp1228
a(I495
I776
tp1229
a(I498
I771
tp1230
a(I498
I772
tp1231
a(I495
I777
tp1232
a(I496
I777
tp1233
a(I499
I771
tp1234
a(I499
I772
tp1235
a(I496
I778
tp1236
a(I497
I776
tp1237
a(I497
I777
tp1238
a(I497
I778
tp1239
a(I498
I775
tp1240
a(I498
I777
tp1241
a(I498
I778
tp1242
a(I499
I774
tp1243
a(I499
I777
tp1244
a(I499
I778
tp1245
asg179
g3
(g7
S'P\xf4\xf62\x83H\xf6?'
p1246
tp1247
Rp1248
sg183
I499
sg184
I486
sg185
I778
sg186
g3
(g7
S'#h8\xa9\xfb\xf2\x08@'
p1249
tp1250
Rp1251
sa(dp1252
g2
g3
(g7
S'\x08meIB\xe4\x02@'
p1253
tp1254
Rp1255
sg13
I970
sg14
I16
sg15
I25
sg16
(lp1256
(I189
I970
tp1257
a(I189
I971
tp1258
a(I189
I972
tp1259
a(I188
I973
tp1260
a(I189
I973
tp1261
a(I187
I974
tp1262
a(I188
I974
tp1263
a(I189
I974
tp1264
a(I186
I974
tp1265
a(I186
I975
tp1266
a(I187
I975
tp1267
a(I188
I975
tp1268
a(I189
I975
tp1269
a(I190
I975
tp1270
a(I185
I975
tp1271
a(I185
I976
tp1272
a(I186
I976
tp1273
a(I187
I976
tp1274
a(I188
I976
tp1275
a(I189
I976
tp1276
a(I190
I976
tp1277
a(I191
I975
tp1278
a(I191
I976
tp1279
a(I184
I976
tp1280
a(I184
I977
tp1281
a(I185
I977
tp1282
a(I186
I977
tp1283
a(I187
I977
tp1284
a(I188
I977
tp1285
a(I189
I977
tp1286
a(I190
I977
tp1287
a(I191
I977
tp1288
a(I192
I977
tp1289
a(I183
I976
tp1290
a(I183
I977
tp1291
a(I183
I978
tp1292
a(I184
I978
tp1293
a(I185
I978
tp1294
a(I186
I978
tp1295
a(I187
I978
tp1296
a(I188
I978
tp1297
a(I189
I978
tp1298
a(I190
I978
tp1299
a(I191
I978
tp1300
a(I182
I976
tp1301
a(I182
I977
tp1302
a(I182
I978
tp1303
a(I182
I979
tp1304
a(I183
I979
tp1305
a(I184
I979
tp1306
a(I185
I979
tp1307
a(I186
I979
tp1308
a(I187
I979
tp1309
a(I188
I979
tp1310
a(I189
I979
tp1311
a(I190
I979
tp1312
a(I191
I979
tp1313
a(I192
I979
tp1314
a(I181
I976
tp1315
a(I181
I977
tp1316
a(I181
I978
tp1317
a(I181
I979
tp1318
a(I181
I980
tp1319
a(I182
I980
tp1320
a(I183
I980
tp1321
a(I184
I980
tp1322
a(I185
I980
tp1323
a(I186
I980
tp1324
a(I187
I980
tp1325
a(I188
I980
tp1326
a(I189
I980
tp1327
a(I190
I980
tp1328
a(I191
I980
tp1329
a(I192
I980
tp1330
a(I193
I980
tp1331
a(I180
I976
tp1332
a(I180
I977
tp1333
a(I180
I978
tp1334
a(I180
I979
tp1335
a(I180
I980
tp1336
a(I180
I981
tp1337
a(I181
I981
tp1338
a(I182
I981
tp1339
a(I183
I981
tp1340
a(I184
I981
tp1341
a(I185
I981
tp1342
a(I186
I981
tp1343
a(I187
I981
tp1344
a(I188
I981
tp1345
a(I189
I981
tp1346
a(I190
I981
tp1347
a(I191
I981
tp1348
a(I192
I981
tp1349
a(I193
I981
tp1350
a(I194
I981
tp1351
a(I179
I976
tp1352
a(I179
I977
tp1353
a(I179
I978
tp1354
a(I179
I979
tp1355
a(I179
I980
tp1356
a(I179
I982
tp1357
a(I178
I977
tp1358
a(I178
I978
tp1359
a(I178
I979
tp1360
a(I180
I983
tp1361
a(I177
I977
tp1362
a(I177
I978
tp1363
a(I177
I979
tp1364
a(I181
I984
tp1365
a(I176
I977
tp1366
a(I176
I978
tp1367
a(I182
I985
tp1368
a(I175
I977
tp1369
a(I175
I978
tp1370
a(I183
I986
tp1371
a(I174
I977
tp1372
a(I173
I977
tp1373
a(I173
I978
tp1374
a(I172
I977
tp1375
a(I172
I978
tp1376
a(I171
I977
tp1377
a(I171
I978
tp1378
a(I170
I977
tp1379
a(I170
I978
tp1380
a(I169
I977
tp1381
a(I169
I978
tp1382
asg179
g3
(g7
S'\xcb\x9eb\x87MN\x16@'
p1383
tp1384
Rp1385
sg183
I194
sg184
I169
sg185
I986
sg186
g3
(g7
S'\xcb\xb2,\xcb\xb2,\x17@'
p1386
tp1387
Rp1388
sa.