(lp0
(dp1
S'X2'
p2
I527
sS'width'
p3
I24
sS'points'
p4
(lp5
(I518
I429
tp6
a(I517
I430
tp7
a(I518
I430
tp8
a(I519
I429
tp9
a(I519
I430
tp10
a(I516
I430
tp11
a(I516
I431
tp12
a(I517
I431
tp13
a(I518
I431
tp14
a(I519
I431
tp15
a(I520
I429
tp16
a(I520
I430
tp17
a(I520
I431
tp18
a(I515
I430
tp19
a(I515
I431
tp20
a(I515
I432
tp21
a(I516
I432
tp22
a(I517
I432
tp23
a(I518
I432
tp24
a(I519
I432
tp25
a(I520
I432
tp26
a(I521
I429
tp27
a(I521
I430
tp28
a(I521
I431
tp29
a(I521
I432
tp30
a(I514
I431
tp31
a(I514
I430
tp32
a(I514
I432
tp33
a(I514
I433
tp34
a(I515
I433
tp35
a(I516
I433
tp36
a(I522
I429
tp37
a(I522
I430
tp38
a(I522
I431
tp39
a(I522
I432
tp40
a(I513
I430
tp41
a(I513
I433
tp42
a(I513
I432
tp43
a(I515
I434
tp44
a(I523
I429
tp45
a(I523
I430
tp46
a(I523
I431
tp47
a(I523
I432
tp48
a(I512
I430
tp49
a(I512
I431
tp50
a(I512
I432
tp51
a(I512
I433
tp52
a(I513
I434
tp53
a(I514
I434
tp54
a(I513
I431
tp55
a(I514
I435
tp56
a(I515
I435
tp57
a(I524
I429
tp58
a(I524
I430
tp59
a(I524
I431
tp60
a(I524
I432
tp61
a(I511
I430
tp62
a(I511
I431
tp63
a(I511
I432
tp64
a(I511
I433
tp65
a(I513
I435
tp66
a(I513
I436
tp67
a(I514
I436
tp68
a(I515
I436
tp69
a(I525
I429
tp70
a(I525
I430
tp71
a(I525
I431
tp72
a(I510
I430
tp73
a(I510
I431
tp74
a(I510
I432
tp75
a(I510
I433
tp76
a(I513
I437
tp77
a(I514
I437
tp78
a(I515
I437
tp79
a(I526
I429
tp80
a(I526
I430
tp81
a(I526
I431
tp82
a(I509
I430
tp83
a(I509
I431
tp84
a(I509
I432
tp85
a(I509
I433
tp86
a(I513
I438
tp87
a(I514
I438
tp88
a(I515
I438
tp89
a(I527
I429
tp90
a(I527
I431
tp91
a(I508
I430
tp92
a(I508
I431
tp93
a(I508
I432
tp94
a(I508
I433
tp95
a(I513
I439
tp96
a(I514
I439
tp97
a(I515
I439
tp98
a(I507
I430
tp99
a(I507
I431
tp100
a(I507
I432
tp101
a(I507
I433
tp102
a(I513
I440
tp103
a(I514
I440
tp104
a(I515
I440
tp105
a(I506
I430
tp106
a(I506
I431
tp107
a(I506
I432
tp108
a(I506
I433
tp109
a(I513
I441
tp110
a(I514
I441
tp111
a(I515
I441
tp112
a(I505
I433
tp113
a(I505
I434
tp114
a(I513
I442
tp115
a(I514
I442
tp116
a(I515
I442
tp117
a(I504
I432
tp118
a(I504
I434
tp119
a(I504
I435
tp120
a(I505
I435
tp121
a(I513
I443
tp122
a(I514
I443
tp123
a(I515
I443
tp124
a(I503
I431
tp125
a(I503
I434
tp126
a(I503
I435
tp127
a(I503
I436
tp128
a(I504
I436
tp129
a(I505
I436
tp130
a(I512
I444
tp131
a(I513
I444
tp132
a(I514
I444
tp133
a(I503
I437
tp134
a(I504
I437
tp135
a(I505
I437
tp136
a(I511
I445
tp137
a(I512
I445
tp138
a(I513
I445
tp139
a(I514
I445
tp140
a(I503
I438
tp141
a(I504
I438
tp142
a(I505
I438
tp143
a(I510
I445
tp144
a(I511
I446
tp145
a(I512
I446
tp146
a(I513
I446
tp147
a(I503
I439
tp148
a(I504
I439
tp149
a(I505
I439
tp150
a(I509
I444
tp151
a(I509
I446
tp152
a(I510
I447
tp153
a(I511
I447
tp154
a(I503
I440
tp155
a(I504
I440
tp156
a(I505
I440
tp157
a(I508
I445
tp158
a(I510
I443
tp159
a(I508
I446
tp160
a(I508
I447
tp161
a(I509
I447
tp162
a(I509
I448
tp163
a(I510
I448
tp164
a(I503
I441
tp165
a(I504
I441
tp166
a(I505
I441
tp167
a(I507
I445
tp168
a(I507
I446
tp169
a(I511
I442
tp170
a(I507
I447
tp171
a(I507
I448
tp172
a(I508
I448
tp173
a(I503
I442
tp174
a(I504
I442
tp175
a(I505
I442
tp176
a(I506
I447
tp177
a(I506
I448
tp178
a(I503
I443
tp179
a(I504
I443
tp180
a(I505
I443
tp181
a(I505
I447
tp182
a(I503
I444
tp183
a(I504
I444
tp184
a(I505
I444
tp185
a(I504
I446
tp186
a(I503
I445
tp187
a(I504
I445
tp188
a(I505
I445
tp189
a(I506
I445
tp190
asS'deviation'
p191
cnumpy.core.multiarray
scalar
p192
(cnumpy
dtype
p193
(S'f8'
p194
I0
I1
tp195
Rp196
(I3
S'<'
p197
NNNI-1
I-1
I0
tp198
bS'\xa1\x12\x01G\xdc\xc9\x00@'
p199
tp200
Rp201
sS'mean'
p202
g192
(g196
S'\xa5Qm\xb9J\x1a\r@'
p203
tp204
Rp205
sS'X'
p206
I503
sS'Y'
p207
I429
sS'variance'
p208
g192
(g196
S'\x0f\xc2RH\xab\x9d\x11@'
p209
tp210
Rp211
sS'Y2'
p212
I448
sS'height'
p213
I19
sa(dp214
g2
I526
sg3
I33
sg4
(lp215
(I521
I456
tp216
a(I520
I457
tp217
a(I521
I457
tp218
a(I522
I457
tp219
a(I520
I458
tp220
a(I521
I458
tp221
a(I522
I458
tp222
a(I523
I457
tp223
a(I523
I458
tp224
a(I520
I459
tp225
a(I521
I459
tp226
a(I522
I459
tp227
a(I523
I459
tp228
a(I524
I459
tp229
a(I520
I460
tp230
a(I521
I460
tp231
a(I522
I460
tp232
a(I523
I460
tp233
a(I524
I460
tp234
a(I521
I461
tp235
a(I522
I461
tp236
a(I523
I461
tp237
a(I524
I461
tp238
a(I525
I461
tp239
a(I522
I462
tp240
a(I523
I462
tp241
a(I524
I462
tp242
a(I525
I462
tp243
a(I522
I463
tp244
a(I523
I463
tp245
a(I524
I463
tp246
a(I525
I463
tp247
a(I526
I463
tp248
a(I523
I464
tp249
a(I524
I464
tp250
a(I525
I464
tp251
a(I526
I464
tp252
a(I523
I465
tp253
a(I524
I465
tp254
a(I525
I465
tp255
a(I526
I465
tp256
a(I523
I466
tp257
a(I524
I466
tp258
a(I525
I466
tp259
a(I522
I467
tp260
a(I523
I467
tp261
a(I524
I467
tp262
a(I525
I467
tp263
a(I522
I468
tp264
a(I523
I468
tp265
a(I524
I468
tp266
a(I525
I468
tp267
a(I522
I469
tp268
a(I523
I469
tp269
a(I524
I469
tp270
a(I525
I469
tp271
a(I521
I470
tp272
a(I522
I470
tp273
a(I523
I470
tp274
a(I524
I470
tp275
a(I521
I471
tp276
a(I522
I471
tp277
a(I523
I471
tp278
a(I524
I471
tp279
a(I520
I472
tp280
a(I521
I472
tp281
a(I522
I472
tp282
a(I523
I472
tp283
a(I519
I472
tp284
a(I519
I473
tp285
a(I520
I473
tp286
a(I521
I473
tp287
a(I522
I473
tp288
a(I518
I473
tp289
a(I518
I474
tp290
a(I519
I474
tp291
a(I520
I474
tp292
a(I521
I474
tp293
a(I522
I474
tp294
a(I517
I473
tp295
a(I517
I474
tp296
a(I517
I475
tp297
a(I518
I475
tp298
a(I519
I475
tp299
a(I520
I475
tp300
a(I521
I475
tp301
a(I516
I473
tp302
a(I516
I474
tp303
a(I516
I475
tp304
a(I516
I476
tp305
a(I517
I476
tp306
a(I518
I476
tp307
a(I519
I476
tp308
a(I515
I473
tp309
a(I515
I474
tp310
a(I515
I475
tp311
a(I515
I476
tp312
a(I515
I477
tp313
a(I516
I477
tp314
a(I517
I477
tp315
a(I514
I473
tp316
a(I514
I474
tp317
a(I514
I475
tp318
a(I514
I476
tp319
a(I514
I477
tp320
a(I518
I478
tp321
a(I513
I473
tp322
a(I513
I474
tp323
a(I513
I475
tp324
a(I513
I476
tp325
a(I513
I477
tp326
a(I519
I478
tp327
a(I512
I473
tp328
a(I512
I474
tp329
a(I512
I475
tp330
a(I512
I476
tp331
a(I512
I477
tp332
a(I520
I478
tp333
a(I511
I472
tp334
a(I511
I474
tp335
a(I511
I475
tp336
a(I511
I476
tp337
a(I521
I478
tp338
a(I510
I471
tp339
a(I510
I472
tp340
a(I510
I473
tp341
a(I510
I475
tp342
a(I522
I478
tp343
a(I509
I470
tp344
a(I509
I471
tp345
a(I509
I472
tp346
a(I510
I470
tp347
a(I509
I473
tp348
a(I509
I474
tp349
a(I509
I475
tp350
a(I508
I469
tp351
a(I508
I470
tp352
a(I508
I471
tp353
a(I509
I469
tp354
a(I510
I469
tp355
a(I508
I472
tp356
a(I508
I473
tp357
a(I508
I474
tp358
a(I507
I468
tp359
a(I507
I469
tp360
a(I507
I470
tp361
a(I508
I468
tp362
a(I509
I468
tp363
a(I507
I471
tp364
a(I507
I472
tp365
a(I506
I467
tp366
a(I506
I468
tp367
a(I506
I469
tp368
a(I507
I467
tp369
a(I508
I467
tp370
a(I506
I470
tp371
a(I509
I467
tp372
a(I506
I466
tp373
a(I507
I466
tp374
a(I508
I466
tp375
a(I509
I466
tp376
a(I506
I465
tp377
a(I507
I465
tp378
a(I508
I465
tp379
a(I509
I465
tp380
a(I506
I464
tp381
a(I507
I464
tp382
a(I508
I464
tp383
a(I509
I464
tp384
a(I505
I463
tp385
a(I506
I463
tp386
a(I507
I463
tp387
a(I504
I462
tp388
a(I504
I463
tp389
a(I505
I462
tp390
a(I506
I462
tp391
a(I507
I462
tp392
a(I508
I462
tp393
a(I508
I463
tp394
a(I503
I461
tp395
a(I503
I462
tp396
a(I503
I463
tp397
a(I504
I461
tp398
a(I505
I461
tp399
a(I506
I461
tp400
a(I507
I461
tp401
a(I508
I461
tp402
a(I509
I461
tp403
a(I509
I462
tp404
a(I509
I463
tp405
a(I502
I460
tp406
a(I502
I461
tp407
a(I502
I462
tp408
a(I503
I460
tp409
a(I504
I460
tp410
a(I502
I463
tp411
a(I505
I460
tp412
a(I506
I460
tp413
a(I507
I460
tp414
a(I508
I460
tp415
a(I509
I460
tp416
a(I501
I459
tp417
a(I501
I460
tp418
a(I501
I461
tp419
a(I502
I459
tp420
a(I503
I459
tp421
a(I501
I462
tp422
a(I501
I463
tp423
a(I504
I459
tp424
a(I505
I459
tp425
a(I506
I459
tp426
a(I507
I459
tp427
a(I508
I459
tp428
a(I509
I459
tp429
a(I500
I459
tp430
a(I500
I460
tp431
a(I500
I461
tp432
a(I500
I462
tp433
a(I500
I463
tp434
a(I509
I458
tp435
a(I499
I459
tp436
a(I499
I460
tp437
a(I499
I461
tp438
a(I499
I462
tp439
a(I499
I463
tp440
a(I498
I460
tp441
a(I498
I461
tp442
a(I498
I462
tp443
a(I498
I463
tp444
a(I497
I460
tp445
a(I497
I461
tp446
a(I497
I462
tp447
a(I497
I463
tp448
a(I497
I464
tp449
a(I496
I460
tp450
a(I496
I461
tp451
a(I496
I462
tp452
a(I496
I463
tp453
a(I496
I464
tp454
a(I496
I465
tp455
a(I497
I465
tp456
a(I495
I460
tp457
a(I495
I461
tp458
a(I495
I462
tp459
a(I495
I463
tp460
a(I495
I464
tp461
a(I495
I465
tp462
a(I495
I466
tp463
a(I496
I466
tp464
a(I497
I466
tp465
a(I494
I460
tp466
a(I494
I461
tp467
a(I494
I462
tp468
a(I494
I463
tp469
a(I494
I464
tp470
a(I494
I465
tp471
a(I494
I466
tp472
a(I494
I467
tp473
a(I495
I467
tp474
a(I496
I467
tp475
a(I497
I467
tp476
a(I494
I468
tp477
a(I495
I468
tp478
a(I496
I468
tp479
a(I497
I468
tp480
a(I494
I469
tp481
a(I495
I469
tp482
a(I496
I469
tp483
a(I497
I469
tp484
a(I494
I470
tp485
a(I495
I470
tp486
a(I496
I470
tp487
a(I497
I470
tp488
a(I493
I471
tp489
a(I494
I471
tp490
a(I495
I471
tp491
a(I496
I471
tp492
a(I497
I471
tp493
a(I493
I472
tp494
a(I494
I472
tp495
a(I495
I472
tp496
a(I496
I472
tp497
a(I497
I472
tp498
a(I496
I473
tp499
asg191
g192
(g196
S'\xa8\xf5\xd5\x07\x8f\xa6\x06@'
p500
tp501
Rp502
sg202
g192
(g196
S'A\xa2\x156\x07\x12\x13@'
p503
tp504
Rp505
sg206
I493
sg207
I456
sg208
g192
(g196
S'\xa6\xcb6\x99g\x08 @'
p506
tp507
Rp508
sg212
I478
sg213
I22
sa(dp509
g2
I524
sg3
I32
sg4
(lp510
(I520
I483
tp511
a(I520
I484
tp512
a(I521
I484
tp513
a(I519
I485
tp514
a(I520
I485
tp515
a(I521
I485
tp516
a(I522
I485
tp517
a(I519
I486
tp518
a(I520
I486
tp519
a(I521
I486
tp520
a(I522
I486
tp521
a(I523
I486
tp522
a(I519
I487
tp523
a(I520
I487
tp524
a(I521
I487
tp525
a(I522
I487
tp526
a(I523
I487
tp527
a(I520
I488
tp528
a(I521
I488
tp529
a(I522
I488
tp530
a(I523
I488
tp531
a(I524
I488
tp532
a(I521
I489
tp533
a(I522
I489
tp534
a(I523
I489
tp535
a(I524
I489
tp536
a(I521
I490
tp537
a(I522
I490
tp538
a(I523
I490
tp539
a(I524
I490
tp540
a(I521
I491
tp541
a(I522
I491
tp542
a(I523
I491
tp543
a(I524
I491
tp544
a(I522
I492
tp545
a(I523
I492
tp546
a(I524
I492
tp547
a(I522
I493
tp548
a(I523
I493
tp549
a(I524
I493
tp550
a(I521
I494
tp551
a(I522
I494
tp552
a(I523
I494
tp553
a(I524
I494
tp554
a(I521
I495
tp555
a(I522
I495
tp556
a(I523
I495
tp557
a(I524
I495
tp558
a(I521
I496
tp559
a(I522
I496
tp560
a(I523
I496
tp561
a(I524
I496
tp562
a(I520
I497
tp563
a(I521
I497
tp564
a(I522
I497
tp565
a(I523
I497
tp566
a(I519
I498
tp567
a(I520
I498
tp568
a(I521
I498
tp569
a(I522
I498
tp570
a(I523
I498
tp571
a(I518
I499
tp572
a(I519
I499
tp573
a(I520
I499
tp574
a(I521
I499
tp575
a(I522
I499
tp576
a(I517
I500
tp577
a(I518
I500
tp578
a(I519
I500
tp579
a(I520
I500
tp580
a(I521
I500
tp581
a(I516
I500
tp582
a(I516
I501
tp583
a(I517
I501
tp584
a(I518
I501
tp585
a(I519
I501
tp586
a(I520
I501
tp587
a(I515
I500
tp588
a(I515
I501
tp589
a(I515
I502
tp590
a(I516
I502
tp591
a(I517
I502
tp592
a(I518
I502
tp593
a(I519
I502
tp594
a(I514
I500
tp595
a(I514
I501
tp596
a(I514
I502
tp597
a(I514
I503
tp598
a(I515
I503
tp599
a(I516
I503
tp600
a(I517
I503
tp601
a(I518
I503
tp602
a(I513
I500
tp603
a(I513
I501
tp604
a(I513
I502
tp605
a(I513
I503
tp606
a(I513
I504
tp607
a(I514
I504
tp608
a(I515
I504
tp609
a(I516
I504
tp610
a(I512
I500
tp611
a(I512
I501
tp612
a(I512
I502
tp613
a(I512
I503
tp614
a(I512
I504
tp615
a(I511
I500
tp616
a(I511
I501
tp617
a(I511
I502
tp618
a(I511
I503
tp619
a(I511
I504
tp620
a(I510
I499
tp621
a(I510
I500
tp622
a(I510
I501
tp623
a(I510
I502
tp624
a(I510
I503
tp625
a(I509
I498
tp626
a(I509
I499
tp627
a(I509
I500
tp628
a(I509
I501
tp629
a(I509
I502
tp630
a(I509
I503
tp631
a(I508
I497
tp632
a(I508
I498
tp633
a(I508
I499
tp634
a(I509
I497
tp635
a(I508
I500
tp636
a(I508
I501
tp637
a(I508
I502
tp638
a(I507
I496
tp639
a(I507
I497
tp640
a(I507
I498
tp641
a(I508
I496
tp642
a(I507
I499
tp643
a(I507
I500
tp644
a(I507
I501
tp645
a(I506
I495
tp646
a(I506
I496
tp647
a(I506
I497
tp648
a(I507
I495
tp649
a(I508
I495
tp650
a(I506
I498
tp651
a(I506
I499
tp652
a(I505
I494
tp653
a(I505
I495
tp654
a(I505
I496
tp655
a(I506
I494
tp656
a(I507
I494
tp657
a(I505
I497
tp658
a(I505
I498
tp659
a(I508
I494
tp660
a(I505
I493
tp661
a(I506
I493
tp662
a(I507
I493
tp663
a(I508
I493
tp664
a(I505
I492
tp665
a(I506
I492
tp666
a(I507
I492
tp667
a(I508
I492
tp668
a(I505
I491
tp669
a(I506
I491
tp670
a(I507
I491
tp671
a(I508
I491
tp672
a(I504
I490
tp673
a(I505
I490
tp674
a(I506
I490
tp675
a(I503
I489
tp676
a(I503
I490
tp677
a(I504
I489
tp678
a(I505
I489
tp679
a(I506
I489
tp680
a(I507
I489
tp681
a(I507
I490
tp682
a(I502
I488
tp683
a(I502
I489
tp684
a(I502
I490
tp685
a(I503
I488
tp686
a(I504
I488
tp687
a(I505
I488
tp688
a(I506
I488
tp689
a(I507
I488
tp690
a(I508
I488
tp691
a(I508
I489
tp692
a(I508
I490
tp693
a(I501
I487
tp694
a(I501
I488
tp695
a(I501
I489
tp696
a(I502
I487
tp697
a(I503
I487
tp698
a(I501
I490
tp699
a(I504
I487
tp700
a(I505
I487
tp701
a(I506
I487
tp702
a(I507
I487
tp703
a(I508
I487
tp704
a(I500
I487
tp705
a(I500
I488
tp706
a(I501
I486
tp707
a(I502
I486
tp708
a(I500
I489
tp709
a(I500
I490
tp710
a(I503
I486
tp711
a(I504
I486
tp712
a(I505
I486
tp713
a(I506
I486
tp714
a(I507
I486
tp715
a(I508
I486
tp716
a(I499
I487
tp717
a(I499
I488
tp718
a(I499
I489
tp719
a(I499
I490
tp720
a(I498
I487
tp721
a(I498
I488
tp722
a(I498
I489
tp723
a(I498
I490
tp724
a(I497
I487
tp725
a(I497
I488
tp726
a(I497
I489
tp727
a(I497
I490
tp728
a(I496
I487
tp729
a(I496
I488
tp730
a(I496
I489
tp731
a(I496
I490
tp732
a(I496
I491
tp733
a(I495
I487
tp734
a(I495
I488
tp735
a(I495
I489
tp736
a(I495
I490
tp737
a(I495
I491
tp738
a(I495
I492
tp739
a(I496
I492
tp740
a(I494
I487
tp741
a(I494
I488
tp742
a(I494
I489
tp743
a(I494
I491
tp744
a(I494
I492
tp745
a(I494
I493
tp746
a(I495
I493
tp747
a(I496
I493
tp748
a(I493
I487
tp749
a(I493
I488
tp750
a(I493
I491
tp751
a(I493
I492
tp752
a(I493
I493
tp753
a(I493
I494
tp754
a(I494
I494
tp755
a(I495
I494
tp756
a(I496
I494
tp757
a(I493
I495
tp758
a(I494
I495
tp759
a(I495
I495
tp760
a(I496
I495
tp761
a(I492
I496
tp762
a(I493
I496
tp763
a(I494
I496
tp764
a(I495
I496
tp765
a(I492
I497
tp766
a(I493
I497
tp767
a(I494
I497
tp768
a(I495
I497
tp769
a(I492
I498
tp770
a(I493
I498
tp771
a(I494
I498
tp772
a(I495
I498
tp773
a(I492
I499
tp774
a(I493
I499
tp775
a(I494
I499
tp776
a(I495
I499
tp777
a(I492
I500
tp778
a(I493
I500
tp779
a(I494
I500
tp780
a(I495
I500
tp781
a(I492
I501
tp782
a(I493
I501
tp783
a(I494
I501
tp784
a(I495
I501
tp785
a(I492
I502
tp786
a(I493
I502
tp787
a(I494
I502
tp788
a(I495
I502
tp789
a(I492
I503
tp790
a(I493
I503
tp791
a(I494
I503
tp792
a(I495
I503
tp793
a(I492
I504
tp794
a(I493
I504
tp795
a(I494
I504
tp796
a(I495
I504
tp797
a(I492
I505
tp798
a(I493
I505
tp799
a(I494
I505
tp800
a(I495
I505
tp801
a(I492
I506
tp802
a(I493
I506
tp803
a(I494
I506
tp804
a(I495
I506
tp805
asg191
g192
(g196
S'\xed_\x1a\xac\xc7\x8b\x03@'
p806
tp807
Rp808
sg202
g192
(g196
S'\xa1JF9\x12\x9d\x11@'
p809
tp810
Rp811
sg206
I492
sg207
I483
sg208
g192
(g196
S'`\xbe\xc8_\xbf\xe0\x17@'
p812
tp813
Rp814
sg212
I506
sg213
I23
sa(dp815
g2
I523
sg3
I32
sg4
(lp816
(I519
I510
tp817
a(I518
I511
tp818
a(I519
I511
tp819
a(I520
I511
tp820
a(I518
I512
tp821
a(I519
I512
tp822
a(I520
I512
tp823
a(I521
I512
tp824
a(I518
I513
tp825
a(I519
I513
tp826
a(I520
I513
tp827
a(I521
I513
tp828
a(I522
I513
tp829
a(I518
I514
tp830
a(I519
I514
tp831
a(I520
I514
tp832
a(I521
I514
tp833
a(I522
I514
tp834
a(I519
I515
tp835
a(I520
I515
tp836
a(I521
I515
tp837
a(I522
I515
tp838
a(I523
I515
tp839
a(I520
I516
tp840
a(I521
I516
tp841
a(I522
I516
tp842
a(I523
I516
tp843
a(I520
I517
tp844
a(I521
I517
tp845
a(I522
I517
tp846
a(I523
I517
tp847
a(I520
I518
tp848
a(I521
I518
tp849
a(I522
I518
tp850
a(I523
I518
tp851
a(I520
I519
tp852
a(I521
I519
tp853
a(I522
I519
tp854
a(I523
I519
tp855
a(I520
I520
tp856
a(I521
I520
tp857
a(I522
I520
tp858
a(I523
I520
tp859
a(I520
I521
tp860
a(I521
I521
tp861
a(I522
I521
tp862
a(I523
I521
tp863
a(I520
I522
tp864
a(I521
I522
tp865
a(I522
I522
tp866
a(I523
I522
tp867
a(I519
I523
tp868
a(I520
I523
tp869
a(I521
I523
tp870
a(I522
I523
tp871
a(I519
I524
tp872
a(I520
I524
tp873
a(I521
I524
tp874
a(I522
I524
tp875
a(I518
I525
tp876
a(I519
I525
tp877
a(I520
I525
tp878
a(I521
I525
tp879
a(I517
I526
tp880
a(I518
I526
tp881
a(I519
I526
tp882
a(I520
I526
tp883
a(I516
I526
tp884
a(I516
I527
tp885
a(I517
I527
tp886
a(I518
I527
tp887
a(I519
I527
tp888
a(I515
I527
tp889
a(I515
I528
tp890
a(I516
I528
tp891
a(I517
I528
tp892
a(I518
I528
tp893
a(I514
I527
tp894
a(I514
I528
tp895
a(I514
I529
tp896
a(I515
I529
tp897
a(I516
I529
tp898
a(I517
I529
tp899
a(I513
I527
tp900
a(I513
I528
tp901
a(I513
I529
tp902
a(I513
I530
tp903
a(I514
I530
tp904
a(I515
I530
tp905
a(I512
I527
tp906
a(I512
I528
tp907
a(I512
I529
tp908
a(I512
I530
tp909
a(I511
I527
tp910
a(I511
I528
tp911
a(I511
I529
tp912
a(I511
I530
tp913
a(I510
I527
tp914
a(I510
I528
tp915
a(I510
I529
tp916
a(I510
I530
tp917
a(I509
I526
tp918
a(I509
I527
tp919
a(I509
I528
tp920
a(I509
I529
tp921
a(I509
I530
tp922
a(I508
I525
tp923
a(I508
I526
tp924
a(I508
I527
tp925
a(I508
I528
tp926
a(I508
I529
tp927
a(I507
I524
tp928
a(I507
I525
tp929
a(I507
I526
tp930
a(I508
I524
tp931
a(I507
I527
tp932
a(I507
I528
tp933
a(I507
I529
tp934
a(I506
I523
tp935
a(I506
I524
tp936
a(I506
I525
tp937
a(I507
I523
tp938
a(I506
I526
tp939
a(I506
I527
tp940
a(I506
I528
tp941
a(I505
I522
tp942
a(I505
I523
tp943
a(I505
I524
tp944
a(I506
I522
tp945
a(I507
I522
tp946
a(I505
I525
tp947
a(I505
I526
tp948
a(I505
I527
tp949
a(I504
I521
tp950
a(I504
I522
tp951
a(I504
I523
tp952
a(I505
I521
tp953
a(I506
I521
tp954
a(I504
I524
tp955
a(I504
I525
tp956
a(I507
I521
tp957
a(I504
I520
tp958
a(I505
I520
tp959
a(I506
I520
tp960
a(I507
I520
tp961
a(I504
I519
tp962
a(I505
I519
tp963
a(I506
I519
tp964
a(I507
I519
tp965
a(I504
I518
tp966
a(I505
I518
tp967
a(I506
I518
tp968
a(I507
I518
tp969
a(I503
I517
tp970
a(I504
I517
tp971
a(I505
I517
tp972
a(I502
I516
tp973
a(I502
I517
tp974
a(I503
I516
tp975
a(I504
I516
tp976
a(I505
I516
tp977
a(I506
I516
tp978
a(I506
I517
tp979
a(I501
I515
tp980
a(I501
I516
tp981
a(I501
I517
tp982
a(I502
I515
tp983
a(I503
I515
tp984
a(I504
I515
tp985
a(I505
I515
tp986
a(I506
I515
tp987
a(I507
I515
tp988
a(I507
I516
tp989
a(I507
I517
tp990
a(I500
I514
tp991
a(I500
I515
tp992
a(I500
I516
tp993
a(I501
I514
tp994
a(I502
I514
tp995
a(I500
I517
tp996
a(I503
I514
tp997
a(I504
I514
tp998
a(I505
I514
tp999
a(I506
I514
tp1000
a(I507
I514
tp1001
a(I499
I514
tp1002
a(I499
I515
tp1003
a(I501
I513
tp1004
a(I499
I516
tp1005
a(I499
I517
tp1006
a(I502
I513
tp1007
a(I503
I513
tp1008
a(I504
I513
tp1009
a(I505
I513
tp1010
a(I506
I513
tp1011
a(I507
I513
tp1012
a(I498
I514
tp1013
a(I498
I515
tp1014
a(I498
I516
tp1015
a(I498
I517
tp1016
a(I497
I514
tp1017
a(I497
I515
tp1018
a(I497
I516
tp1019
a(I497
I517
tp1020
a(I496
I514
tp1021
a(I496
I515
tp1022
a(I496
I516
tp1023
a(I496
I517
tp1024
a(I495
I514
tp1025
a(I495
I515
tp1026
a(I495
I516
tp1027
a(I495
I517
tp1028
a(I495
I518
tp1029
a(I494
I514
tp1030
a(I494
I515
tp1031
a(I494
I516
tp1032
a(I494
I517
tp1033
a(I494
I518
tp1034
a(I494
I519
tp1035
a(I495
I519
tp1036
a(I493
I514
tp1037
a(I493
I515
tp1038
a(I493
I516
tp1039
a(I493
I518
tp1040
a(I493
I519
tp1041
a(I493
I520
tp1042
a(I494
I520
tp1043
a(I492
I514
tp1044
a(I492
I515
tp1045
a(I492
I518
tp1046
a(I492
I519
tp1047
a(I492
I520
tp1048
a(I492
I521
tp1049
a(I493
I521
tp1050
a(I494
I521
tp1051
a(I491
I519
tp1052
a(I491
I520
tp1053
a(I491
I521
tp1054
a(I491
I522
tp1055
a(I492
I522
tp1056
a(I493
I522
tp1057
a(I494
I522
tp1058
a(I491
I523
tp1059
a(I492
I523
tp1060
a(I493
I523
tp1061
a(I494
I523
tp1062
a(I491
I524
tp1063
a(I492
I524
tp1064
a(I493
I524
tp1065
a(I494
I524
tp1066
a(I491
I525
tp1067
a(I492
I525
tp1068
a(I493
I525
tp1069
a(I494
I525
tp1070
a(I491
I526
tp1071
a(I492
I526
tp1072
a(I493
I526
tp1073
a(I494
I526
tp1074
a(I491
I527
tp1075
a(I492
I527
tp1076
a(I493
I527
tp1077
a(I494
I527
tp1078
a(I491
I528
tp1079
a(I492
I528
tp1080
a(I493
I528
tp1081
a(I494
I528
tp1082
a(I491
I529
tp1083
a(I492
I529
tp1084
a(I493
I529
tp1085
a(I494
I529
tp1086
a(I491
I530
tp1087
a(I492
I530
tp1088
a(I493
I530
tp1089
a(I494
I530
tp1090
a(I491
I531
tp1091
a(I492
I531
tp1092
a(I493
I531
tp1093
a(I494
I531
tp1094
a(I491
I532
tp1095
a(I492
I532
tp1096
a(I493
I532
tp1097
a(I494
I532
tp1098
a(I491
I533
tp1099
a(I492
I533
tp1100
a(I493
I533
tp1101
asg191
g192
(g196
S'#\xf3\xbf\x1c\x04\xcc\x03@'
p1102
tp1103
Rp1104
sg202
g192
(g196
S'\xd8P^Cy\r\x11@'
p1105
tp1106
Rp1107
sg206
I491
sg207
I510
sg208
g192
(g196
S'\xbf\x0e&-\xb3~\x18@'
p1108
tp1109
Rp1110
sg212
I533
sg213
I23
sa(dp1111
g2
I528
sg3
I31
sg4
(lp1112
(I519
I536
tp1113
a(I518
I537
tp1114
a(I519
I537
tp1115
a(I520
I536
tp1116
a(I520
I537
tp1117
a(I517
I537
tp1118
a(I517
I538
tp1119
a(I518
I538
tp1120
a(I519
I538
tp1121
a(I520
I538
tp1122
a(I521
I536
tp1123
a(I521
I537
tp1124
a(I521
I538
tp1125
a(I516
I537
tp1126
a(I516
I538
tp1127
a(I516
I539
tp1128
a(I517
I539
tp1129
a(I518
I539
tp1130
a(I519
I539
tp1131
a(I520
I539
tp1132
a(I521
I539
tp1133
a(I522
I536
tp1134
a(I522
I537
tp1135
a(I522
I538
tp1136
a(I515
I537
tp1137
a(I515
I538
tp1138
a(I515
I539
tp1139
a(I515
I540
tp1140
a(I514
I537
tp1141
a(I514
I538
tp1142
a(I514
I539
tp1143
a(I514
I540
tp1144
a(I513
I537
tp1145
a(I513
I538
tp1146
a(I513
I539
tp1147
a(I513
I540
tp1148
a(I512
I537
tp1149
a(I512
I538
tp1150
a(I512
I539
tp1151
a(I512
I540
tp1152
a(I512
I541
tp1153
a(I511
I538
tp1154
a(I511
I539
tp1155
a(I511
I540
tp1156
a(I511
I541
tp1157
a(I511
I542
tp1158
a(I510
I538
tp1159
a(I510
I539
tp1160
a(I510
I540
tp1161
a(I510
I541
tp1162
a(I510
I542
tp1163
a(I510
I543
tp1164
a(I511
I543
tp1165
a(I509
I538
tp1166
a(I509
I539
tp1167
a(I509
I540
tp1168
a(I509
I541
tp1169
a(I509
I542
tp1170
a(I509
I543
tp1171
a(I509
I544
tp1172
a(I510
I544
tp1173
a(I511
I544
tp1174
a(I508
I538
tp1175
a(I508
I539
tp1176
a(I508
I540
tp1177
a(I508
I541
tp1178
a(I508
I542
tp1179
a(I508
I543
tp1180
a(I508
I544
tp1181
a(I508
I545
tp1182
a(I509
I545
tp1183
a(I510
I545
tp1184
a(I511
I545
tp1185
a(I512
I545
tp1186
a(I507
I538
tp1187
a(I507
I539
tp1188
a(I507
I540
tp1189
a(I507
I541
tp1190
a(I507
I544
tp1191
a(I507
I545
tp1192
a(I507
I546
tp1193
a(I508
I546
tp1194
a(I509
I546
tp1195
a(I510
I546
tp1196
a(I511
I546
tp1197
a(I512
I546
tp1198
a(I513
I546
tp1199
a(I506
I540
tp1200
a(I506
I541
tp1201
a(I506
I545
tp1202
a(I506
I546
tp1203
a(I506
I547
tp1204
a(I507
I547
tp1205
a(I508
I547
tp1206
a(I509
I547
tp1207
a(I510
I547
tp1208
a(I511
I547
tp1209
a(I512
I547
tp1210
a(I513
I547
tp1211
a(I514
I547
tp1212
a(I505
I539
tp1213
a(I505
I540
tp1214
a(I506
I539
tp1215
a(I505
I546
tp1216
a(I505
I547
tp1217
a(I505
I548
tp1218
a(I511
I548
tp1219
a(I512
I548
tp1220
a(I513
I548
tp1221
a(I514
I548
tp1222
a(I515
I547
tp1223
a(I515
I548
tp1224
a(I504
I538
tp1225
a(I504
I539
tp1226
a(I504
I540
tp1227
a(I505
I538
tp1228
a(I506
I538
tp1229
a(I504
I541
tp1230
a(I504
I547
tp1231
a(I504
I548
tp1232
a(I504
I549
tp1233
a(I513
I549
tp1234
a(I514
I549
tp1235
a(I515
I549
tp1236
a(I516
I548
tp1237
a(I516
I549
tp1238
a(I503
I538
tp1239
a(I503
I539
tp1240
a(I503
I540
tp1241
a(I503
I541
tp1242
a(I503
I548
tp1243
a(I503
I549
tp1244
a(I503
I550
tp1245
a(I515
I550
tp1246
a(I516
I550
tp1247
a(I517
I548
tp1248
a(I517
I549
tp1249
a(I517
I550
tp1250
a(I502
I538
tp1251
a(I502
I539
tp1252
a(I502
I540
tp1253
a(I502
I541
tp1254
a(I502
I549
tp1255
a(I502
I550
tp1256
a(I502
I551
tp1257
a(I517
I551
tp1258
a(I518
I549
tp1259
a(I518
I550
tp1260
a(I518
I551
tp1261
a(I501
I539
tp1262
a(I501
I540
tp1263
a(I501
I541
tp1264
a(I501
I550
tp1265
a(I501
I551
tp1266
a(I501
I552
tp1267
a(I519
I550
tp1268
a(I519
I549
tp1269
a(I519
I551
tp1270
a(I519
I552
tp1271
a(I500
I539
tp1272
a(I500
I540
tp1273
a(I500
I541
tp1274
a(I500
I551
tp1275
a(I500
I552
tp1276
a(I500
I553
tp1277
a(I520
I550
tp1278
a(I520
I551
tp1279
a(I520
I548
tp1280
a(I520
I552
tp1281
a(I499
I539
tp1282
a(I499
I540
tp1283
a(I499
I541
tp1284
a(I499
I552
tp1285
a(I499
I553
tp1286
a(I499
I554
tp1287
a(I521
I550
tp1288
a(I521
I551
tp1289
a(I521
I552
tp1290
a(I521
I547
tp1291
a(I521
I553
tp1292
a(I498
I541
tp1293
a(I498
I552
tp1294
a(I498
I553
tp1295
a(I498
I554
tp1296
a(I498
I555
tp1297
a(I522
I546
tp1298
a(I498
I540
tp1299
a(I497
I555
tp1300
a(I497
I556
tp1301
a(I523
I545
tp1302
a(I497
I557
tp1303
a(I524
I544
tp1304
a(I525
I543
tp1305
a(I526
I542
tp1306
a(I527
I541
tp1307
a(I528
I540
tp1308
asg191
g192
(g196
S'\xee?\xdee\xa6G\x0c@'
p1309
tp1310
Rp1311
sg202
g192
(g196
S'\x8d\xf5\xa1\xb1>4\x11@'
p1312
tp1313
Rp1314
sg206
I497
sg207
I536
sg208
g192
(g196
S'C<\n\xa0\x03\xfe(@'
p1315
tp1316
Rp1317
sg212
I557
sg213
I21
sa(dp1318
g2
I521
sg3
I25
sg4
(lp1319
(I519
I562
tp1320
a(I518
I563
tp1321
a(I519
I563
tp1322
a(I520
I562
tp1323
a(I520
I563
tp1324
a(I517
I563
tp1325
a(I517
I564
tp1326
a(I518
I564
tp1327
a(I519
I564
tp1328
a(I520
I564
tp1329
a(I521
I562
tp1330
a(I521
I563
tp1331
a(I516
I563
tp1332
a(I516
I564
tp1333
a(I516
I565
tp1334
a(I517
I565
tp1335
a(I518
I565
tp1336
a(I515
I564
tp1337
a(I515
I565
tp1338
a(I515
I566
tp1339
a(I514
I564
tp1340
a(I514
I566
tp1341
a(I514
I567
tp1342
a(I515
I567
tp1343
a(I513
I565
tp1344
a(I513
I566
tp1345
a(I513
I567
tp1346
a(I514
I565
tp1347
a(I514
I568
tp1348
a(I512
I566
tp1349
a(I513
I564
tp1350
a(I512
I565
tp1351
a(I512
I567
tp1352
a(I512
I568
tp1353
a(I513
I568
tp1354
a(I511
I568
tp1355
a(I512
I569
tp1356
a(I513
I569
tp1357
a(I512
I570
tp1358
a(I513
I570
tp1359
a(I514
I569
tp1360
a(I514
I570
tp1361
a(I512
I571
tp1362
a(I513
I571
tp1363
a(I514
I571
tp1364
a(I512
I572
tp1365
a(I513
I572
tp1366
a(I514
I572
tp1367
a(I512
I573
tp1368
a(I513
I573
tp1369
a(I514
I573
tp1370
a(I512
I574
tp1371
a(I513
I574
tp1372
a(I514
I574
tp1373
a(I512
I575
tp1374
a(I513
I575
tp1375
a(I514
I575
tp1376
a(I511
I576
tp1377
a(I512
I576
tp1378
a(I513
I576
tp1379
a(I510
I576
tp1380
a(I510
I577
tp1381
a(I511
I577
tp1382
a(I512
I577
tp1383
a(I513
I577
tp1384
a(I514
I576
tp1385
a(I514
I577
tp1386
a(I509
I576
tp1387
a(I509
I577
tp1388
a(I509
I578
tp1389
a(I510
I578
tp1390
a(I511
I578
tp1391
a(I512
I578
tp1392
a(I513
I578
tp1393
a(I514
I578
tp1394
a(I515
I577
tp1395
a(I515
I578
tp1396
a(I508
I576
tp1397
a(I508
I577
tp1398
a(I508
I578
tp1399
a(I513
I579
tp1400
a(I514
I579
tp1401
a(I515
I579
tp1402
a(I516
I577
tp1403
a(I516
I578
tp1404
a(I516
I579
tp1405
a(I507
I576
tp1406
a(I507
I577
tp1407
a(I517
I577
tp1408
a(I517
I578
tp1409
a(I517
I579
tp1410
a(I506
I575
tp1411
a(I506
I576
tp1412
a(I506
I577
tp1413
a(I518
I577
tp1414
a(I518
I578
tp1415
a(I518
I579
tp1416
a(I505
I575
tp1417
a(I505
I576
tp1418
a(I505
I577
tp1419
a(I519
I577
tp1420
a(I519
I578
tp1421
a(I519
I579
tp1422
a(I504
I575
tp1423
a(I504
I576
tp1424
a(I504
I577
tp1425
a(I503
I575
tp1426
a(I503
I576
tp1427
a(I503
I577
tp1428
a(I502
I575
tp1429
a(I502
I576
tp1430
a(I502
I577
tp1431
a(I501
I574
tp1432
a(I501
I575
tp1433
a(I501
I576
tp1434
a(I501
I577
tp1435
a(I500
I573
tp1436
a(I500
I574
tp1437
a(I500
I575
tp1438
a(I501
I573
tp1439
a(I500
I576
tp1440
a(I499
I572
tp1441
a(I499
I573
tp1442
a(I499
I574
tp1443
a(I500
I572
tp1444
a(I501
I572
tp1445
a(I499
I575
tp1446
a(I499
I576
tp1447
a(I498
I571
tp1448
a(I498
I572
tp1449
a(I498
I573
tp1450
a(I499
I571
tp1451
a(I500
I571
tp1452
a(I498
I574
tp1453
a(I498
I575
tp1454
a(I501
I571
tp1455
a(I502
I571
tp1456
a(I498
I576
tp1457
a(I497
I571
tp1458
a(I497
I572
tp1459
a(I498
I570
tp1460
a(I499
I570
tp1461
a(I497
I573
tp1462
a(I497
I574
tp1463
a(I500
I570
tp1464
a(I501
I570
tp1465
a(I497
I575
tp1466
a(I497
I576
tp1467
a(I502
I570
tp1468
a(I503
I570
tp1469
a(I496
I574
tp1470
a(I496
I575
tp1471
a(I501
I569
tp1472
a(I502
I569
tp1473
a(I503
I569
tp1474
a(I504
I569
tp1475
a(I504
I570
tp1476
a(I503
I568
tp1477
a(I504
I568
tp1478
a(I505
I568
tp1479
a(I505
I569
tp1480
a(I505
I570
tp1481
a(I506
I567
tp1482
a(I506
I568
tp1483
a(I506
I569
tp1484
a(I507
I567
tp1485
a(I507
I568
tp1486
a(I507
I569
tp1487
a(I508
I567
tp1488
a(I508
I568
tp1489
a(I509
I566
tp1490
a(I509
I567
tp1491
a(I509
I568
tp1492
a(I510
I566
tp1493
a(I510
I567
tp1494
a(I510
I568
tp1495
asg191
g192
(g196
S'\xae\x12.-Zj\x08@'
p1496
tp1497
Rp1498
sg202
g192
(g196
S'\x00\x00\x00\x00\x00\xc0\x11@'
p1499
tp1500
Rp1501
sg206
I496
sg207
I562
sg208
g192
(g196
S'\xa3\x8b.\xba\xe8\xa0"@'
p1502
tp1503
Rp1504
sg212
I579
sg213
I17
sa(dp1505
g2
I70
sg3
I67
sg4
(lp1506
(I5
I594
tp1507
a(I4
I595
tp1508
a(I5
I595
tp1509
a(I6
I594
tp1510
a(I6
I595
tp1511
a(I3
I596
tp1512
a(I4
I596
tp1513
a(I5
I596
tp1514
a(I6
I596
tp1515
a(I7
I595
tp1516
a(I7
I596
tp1517
a(I4
I597
tp1518
a(I5
I597
tp1519
a(I6
I597
tp1520
a(I7
I597
tp1521
a(I8
I595
tp1522
a(I8
I596
tp1523
a(I8
I597
tp1524
a(I6
I598
tp1525
a(I7
I598
tp1526
a(I8
I598
tp1527
a(I9
I596
tp1528
a(I9
I597
tp1529
a(I9
I598
tp1530
a(I8
I599
tp1531
a(I9
I599
tp1532
a(I10
I596
tp1533
a(I10
I597
tp1534
a(I10
I598
tp1535
a(I10
I599
tp1536
a(I9
I600
tp1537
a(I10
I600
tp1538
a(I11
I597
tp1539
a(I11
I598
tp1540
a(I11
I599
tp1541
a(I11
I600
tp1542
a(I11
I601
tp1543
a(I12
I598
tp1544
a(I12
I599
tp1545
a(I12
I600
tp1546
a(I12
I601
tp1547
a(I10
I602
tp1548
a(I13
I598
tp1549
a(I13
I599
tp1550
a(I13
I600
tp1551
a(I13
I601
tp1552
a(I13
I602
tp1553
a(I9
I603
tp1554
a(I14
I599
tp1555
a(I14
I600
tp1556
a(I14
I601
tp1557
a(I14
I602
tp1558
a(I14
I603
tp1559
a(I8
I604
tp1560
a(I15
I600
tp1561
a(I15
I601
tp1562
a(I15
I602
tp1563
a(I15
I603
tp1564
a(I16
I600
tp1565
a(I16
I601
tp1566
a(I16
I602
tp1567
a(I16
I603
tp1568
a(I16
I604
tp1569
a(I17
I601
tp1570
a(I17
I602
tp1571
a(I17
I603
tp1572
a(I17
I604
tp1573
a(I18
I601
tp1574
a(I18
I602
tp1575
a(I18
I603
tp1576
a(I18
I604
tp1577
a(I18
I605
tp1578
a(I19
I602
tp1579
a(I19
I603
tp1580
a(I19
I604
tp1581
a(I19
I605
tp1582
a(I19
I606
tp1583
a(I20
I602
tp1584
a(I20
I603
tp1585
a(I20
I604
tp1586
a(I20
I605
tp1587
a(I20
I606
tp1588
a(I21
I603
tp1589
a(I21
I604
tp1590
a(I21
I605
tp1591
a(I21
I606
tp1592
a(I21
I607
tp1593
a(I22
I604
tp1594
a(I22
I605
tp1595
a(I22
I606
tp1596
a(I22
I607
tp1597
a(I23
I604
tp1598
a(I23
I605
tp1599
a(I23
I606
tp1600
a(I23
I607
tp1601
a(I23
I608
tp1602
a(I24
I605
tp1603
a(I24
I606
tp1604
a(I24
I607
tp1605
a(I24
I608
tp1606
a(I25
I605
tp1607
a(I25
I606
tp1608
a(I25
I607
tp1609
a(I25
I608
tp1610
a(I25
I609
tp1611
a(I26
I606
tp1612
a(I26
I607
tp1613
a(I26
I608
tp1614
a(I26
I609
tp1615
a(I24
I610
tp1616
a(I27
I606
tp1617
a(I27
I607
tp1618
a(I27
I608
tp1619
a(I27
I609
tp1620
a(I27
I610
tp1621
a(I23
I611
tp1622
a(I28
I607
tp1623
a(I28
I608
tp1624
a(I28
I609
tp1625
a(I28
I610
tp1626
a(I28
I611
tp1627
a(I22
I612
tp1628
a(I23
I612
tp1629
a(I24
I612
tp1630
a(I29
I607
tp1631
a(I29
I608
tp1632
a(I29
I609
tp1633
a(I29
I610
tp1634
a(I29
I611
tp1635
a(I21
I611
tp1636
a(I21
I612
tp1637
a(I21
I613
tp1638
a(I23
I613
tp1639
a(I25
I612
tp1640
a(I30
I608
tp1641
a(I30
I609
tp1642
a(I30
I610
tp1643
a(I30
I611
tp1644
a(I30
I612
tp1645
a(I20
I610
tp1646
a(I20
I612
tp1647
a(I20
I614
tp1648
a(I24
I614
tp1649
a(I26
I612
tp1650
a(I31
I608
tp1651
a(I31
I609
tp1652
a(I31
I610
tp1653
a(I31
I611
tp1654
a(I31
I612
tp1655
a(I19
I609
tp1656
a(I19
I612
tp1657
a(I19
I615
tp1658
a(I20
I615
tp1659
a(I21
I615
tp1660
a(I23
I615
tp1661
a(I24
I615
tp1662
a(I25
I615
tp1663
a(I32
I609
tp1664
a(I32
I610
tp1665
a(I32
I611
tp1666
a(I32
I612
tp1667
a(I32
I613
tp1668
a(I18
I608
tp1669
a(I18
I615
tp1670
a(I18
I616
tp1671
a(I19
I616
tp1672
a(I20
I616
tp1673
a(I21
I616
tp1674
a(I22
I615
tp1675
a(I22
I616
tp1676
a(I23
I616
tp1677
a(I24
I616
tp1678
a(I25
I616
tp1679
a(I26
I615
tp1680
a(I26
I616
tp1681
a(I33
I609
tp1682
a(I33
I610
tp1683
a(I33
I611
tp1684
a(I33
I612
tp1685
a(I33
I613
tp1686
a(I17
I607
tp1687
a(I18
I617
tp1688
a(I19
I617
tp1689
a(I20
I617
tp1690
a(I21
I617
tp1691
a(I22
I617
tp1692
a(I23
I617
tp1693
a(I24
I617
tp1694
a(I25
I617
tp1695
a(I26
I617
tp1696
a(I27
I615
tp1697
a(I27
I616
tp1698
a(I27
I617
tp1699
a(I34
I610
tp1700
a(I34
I611
tp1701
a(I34
I612
tp1702
a(I34
I613
tp1703
a(I34
I614
tp1704
a(I16
I606
tp1705
a(I18
I618
tp1706
a(I19
I618
tp1707
a(I20
I618
tp1708
a(I21
I618
tp1709
a(I22
I618
tp1710
a(I23
I618
tp1711
a(I24
I618
tp1712
a(I25
I618
tp1713
a(I26
I618
tp1714
a(I27
I618
tp1715
a(I28
I615
tp1716
a(I28
I616
tp1717
a(I28
I617
tp1718
a(I28
I618
tp1719
a(I35
I610
tp1720
a(I35
I611
tp1721
a(I35
I612
tp1722
a(I35
I613
tp1723
a(I35
I614
tp1724
a(I29
I615
tp1725
a(I29
I616
tp1726
a(I29
I617
tp1727
a(I29
I618
tp1728
a(I29
I619
tp1729
a(I36
I611
tp1730
a(I36
I612
tp1731
a(I36
I613
tp1732
a(I36
I614
tp1733
a(I36
I615
tp1734
a(I30
I615
tp1735
a(I30
I616
tp1736
a(I30
I618
tp1737
a(I37
I611
tp1738
a(I37
I612
tp1739
a(I37
I613
tp1740
a(I37
I614
tp1741
a(I37
I615
tp1742
a(I31
I615
tp1743
a(I31
I616
tp1744
a(I38
I612
tp1745
a(I38
I613
tp1746
a(I38
I614
tp1747
a(I38
I615
tp1748
a(I38
I616
tp1749
a(I32
I615
tp1750
a(I32
I616
tp1751
a(I39
I612
tp1752
a(I39
I613
tp1753
a(I39
I614
tp1754
a(I39
I615
tp1755
a(I39
I616
tp1756
a(I39
I617
tp1757
a(I33
I616
tp1758
a(I40
I613
tp1759
a(I40
I614
tp1760
a(I40
I615
tp1761
a(I40
I617
tp1762
a(I38
I618
tp1763
a(I40
I616
tp1764
a(I34
I616
tp1765
a(I41
I614
tp1766
a(I41
I616
tp1767
a(I41
I617
tp1768
a(I37
I618
tp1769
a(I37
I619
tp1770
a(I38
I619
tp1771
a(I39
I619
tp1772
a(I41
I615
tp1773
a(I35
I617
tp1774
a(I42
I615
tp1775
a(I42
I616
tp1776
a(I42
I617
tp1777
a(I42
I618
tp1778
a(I36
I617
tp1779
a(I36
I618
tp1780
a(I36
I620
tp1781
a(I37
I620
tp1782
a(I38
I620
tp1783
a(I39
I620
tp1784
a(I40
I620
tp1785
a(I42
I614
tp1786
a(I43
I614
tp1787
a(I43
I615
tp1788
a(I43
I616
tp1789
a(I43
I617
tp1790
a(I43
I618
tp1791
a(I35
I620
tp1792
a(I35
I621
tp1793
a(I39
I621
tp1794
a(I40
I621
tp1795
a(I41
I620
tp1796
a(I41
I621
tp1797
a(I44
I615
tp1798
a(I44
I616
tp1799
a(I44
I617
tp1800
a(I44
I618
tp1801
a(I34
I622
tp1802
a(I40
I622
tp1803
a(I41
I622
tp1804
a(I42
I620
tp1805
a(I42
I622
tp1806
a(I45
I616
tp1807
a(I45
I617
tp1808
a(I45
I619
tp1809
a(I33
I623
tp1810
a(I40
I623
tp1811
a(I41
I623
tp1812
a(I42
I623
tp1813
a(I43
I622
tp1814
a(I43
I623
tp1815
a(I46
I616
tp1816
a(I46
I617
tp1817
a(I46
I618
tp1818
a(I45
I620
tp1819
a(I46
I619
tp1820
a(I46
I620
tp1821
a(I32
I624
tp1822
a(I41
I624
tp1823
a(I42
I624
tp1824
a(I43
I624
tp1825
a(I44
I621
tp1826
a(I44
I624
tp1827
a(I47
I616
tp1828
a(I47
I617
tp1829
a(I47
I618
tp1830
a(I47
I619
tp1831
a(I47
I620
tp1832
a(I31
I625
tp1833
a(I41
I625
tp1834
a(I42
I625
tp1835
a(I43
I625
tp1836
a(I44
I625
tp1837
a(I45
I624
tp1838
a(I45
I625
tp1839
a(I48
I617
tp1840
a(I48
I618
tp1841
a(I48
I619
tp1842
a(I48
I620
tp1843
a(I30
I626
tp1844
a(I41
I626
tp1845
a(I42
I626
tp1846
a(I43
I626
tp1847
a(I44
I626
tp1848
a(I45
I626
tp1849
a(I46
I624
tp1850
a(I46
I626
tp1851
a(I49
I617
tp1852
a(I49
I618
tp1853
a(I49
I619
tp1854
a(I49
I621
tp1855
a(I29
I627
tp1856
a(I40
I627
tp1857
a(I41
I627
tp1858
a(I42
I627
tp1859
a(I43
I627
tp1860
a(I44
I627
tp1861
a(I45
I627
tp1862
a(I47
I624
tp1863
a(I47
I626
tp1864
a(I50
I618
tp1865
a(I50
I620
tp1866
a(I50
I621
tp1867
a(I50
I622
tp1868
a(I28
I628
tp1869
a(I29
I628
tp1870
a(I30
I628
tp1871
a(I40
I628
tp1872
a(I41
I628
tp1873
a(I42
I628
tp1874
a(I43
I628
tp1875
a(I44
I628
tp1876
a(I45
I628
tp1877
a(I48
I624
tp1878
a(I48
I626
tp1879
a(I51
I618
tp1880
a(I51
I619
tp1881
a(I51
I620
tp1882
a(I51
I621
tp1883
a(I51
I622
tp1884
a(I51
I623
tp1885
a(I27
I628
tp1886
a(I27
I629
tp1887
a(I40
I629
tp1888
a(I41
I629
tp1889
a(I42
I629
tp1890
a(I43
I629
tp1891
a(I44
I629
tp1892
a(I49
I624
tp1893
a(I49
I626
tp1894
a(I52
I619
tp1895
a(I52
I620
tp1896
a(I52
I621
tp1897
a(I52
I622
tp1898
a(I52
I623
tp1899
a(I50
I624
tp1900
a(I26
I628
tp1901
a(I26
I630
tp1902
a(I40
I630
tp1903
a(I41
I630
tp1904
a(I42
I630
tp1905
a(I43
I630
tp1906
a(I44
I630
tp1907
a(I50
I626
tp1908
a(I53
I619
tp1909
a(I53
I620
tp1910
a(I53
I623
tp1911
a(I25
I628
tp1912
a(I25
I631
tp1913
a(I40
I631
tp1914
a(I41
I631
tp1915
a(I42
I631
tp1916
a(I43
I631
tp1917
a(I44
I631
tp1918
a(I51
I626
tp1919
a(I54
I622
tp1920
a(I54
I623
tp1921
a(I54
I624
tp1922
a(I41
I632
tp1923
a(I42
I632
tp1924
a(I43
I632
tp1925
a(I44
I632
tp1926
a(I52
I626
tp1927
a(I55
I621
tp1928
a(I55
I622
tp1929
a(I55
I623
tp1930
a(I55
I624
tp1931
a(I55
I625
tp1932
a(I40
I633
tp1933
a(I41
I633
tp1934
a(I42
I633
tp1935
a(I43
I633
tp1936
a(I44
I633
tp1937
a(I53
I626
tp1938
a(I53
I627
tp1939
a(I55
I620
tp1940
a(I56
I621
tp1941
a(I56
I622
tp1942
a(I56
I623
tp1943
a(I56
I624
tp1944
a(I56
I625
tp1945
a(I54
I626
tp1946
a(I40
I634
tp1947
a(I41
I634
tp1948
a(I42
I634
tp1949
a(I43
I634
tp1950
a(I44
I634
tp1951
a(I52
I628
tp1952
a(I57
I621
tp1953
a(I57
I622
tp1954
a(I57
I623
tp1955
a(I57
I625
tp1956
a(I40
I635
tp1957
a(I41
I635
tp1958
a(I42
I635
tp1959
a(I43
I635
tp1960
a(I44
I635
tp1961
a(I45
I635
tp1962
a(I58
I621
tp1963
a(I58
I622
tp1964
a(I58
I623
tp1965
a(I58
I624
tp1966
a(I58
I625
tp1967
a(I58
I626
tp1968
a(I39
I636
tp1969
a(I41
I636
tp1970
a(I42
I636
tp1971
a(I43
I636
tp1972
a(I44
I636
tp1973
a(I45
I636
tp1974
a(I59
I620
tp1975
a(I59
I622
tp1976
a(I59
I623
tp1977
a(I59
I624
tp1978
a(I59
I625
tp1979
a(I59
I626
tp1980
a(I59
I627
tp1981
a(I39
I637
tp1982
a(I41
I637
tp1983
a(I42
I637
tp1984
a(I43
I637
tp1985
a(I44
I637
tp1986
a(I45
I637
tp1987
a(I60
I619
tp1988
a(I60
I623
tp1989
a(I60
I624
tp1990
a(I60
I625
tp1991
a(I39
I638
tp1992
a(I41
I638
tp1993
a(I42
I638
tp1994
a(I43
I638
tp1995
a(I44
I638
tp1996
a(I45
I638
tp1997
a(I61
I618
tp1998
a(I61
I623
tp1999
a(I61
I624
tp2000
a(I39
I639
tp2001
a(I41
I639
tp2002
a(I42
I639
tp2003
a(I43
I639
tp2004
a(I44
I639
tp2005
a(I45
I639
tp2006
a(I62
I617
tp2007
a(I39
I640
tp2008
a(I41
I640
tp2009
a(I42
I640
tp2010
a(I43
I640
tp2011
a(I44
I640
tp2012
a(I45
I640
tp2013
a(I46
I640
tp2014
a(I62
I616
tp2015
a(I63
I616
tp2016
a(I63
I617
tp2017
a(I38
I641
tp2018
a(I39
I641
tp2019
a(I42
I641
tp2020
a(I43
I641
tp2021
a(I44
I641
tp2022
a(I61
I615
tp2023
a(I61
I616
tp2024
a(I62
I615
tp2025
a(I63
I615
tp2026
a(I64
I615
tp2027
a(I64
I616
tp2028
a(I64
I617
tp2029
a(I37
I642
tp2030
a(I39
I642
tp2031
a(I41
I642
tp2032
a(I42
I642
tp2033
a(I43
I642
tp2034
a(I60
I614
tp2035
a(I60
I616
tp2036
a(I61
I614
tp2037
a(I64
I614
tp2038
a(I65
I614
tp2039
a(I65
I615
tp2040
a(I65
I616
tp2041
a(I65
I618
tp2042
a(I36
I643
tp2043
a(I39
I643
tp2044
a(I41
I643
tp2045
a(I42
I643
tp2046
a(I59
I613
tp2047
a(I59
I614
tp2048
a(I60
I613
tp2049
a(I59
I616
tp2050
a(I66
I617
tp2051
a(I65
I619
tp2052
a(I66
I619
tp2053
a(I35
I644
tp2054
a(I39
I644
tp2055
a(I41
I644
tp2056
a(I58
I612
tp2057
a(I58
I613
tp2058
a(I58
I614
tp2059
a(I59
I612
tp2060
a(I60
I612
tp2061
a(I58
I615
tp2062
a(I67
I619
tp2063
a(I34
I645
tp2064
a(I39
I645
tp2065
a(I57
I612
tp2066
a(I57
I613
tp2067
a(I57
I614
tp2068
a(I57
I615
tp2069
a(I68
I619
tp2070
a(I33
I646
tp2071
a(I39
I646
tp2072
a(I69
I619
tp2073
a(I32
I647
tp2074
a(I39
I647
tp2075
a(I70
I619
tp2076
a(I31
I648
tp2077
a(I39
I648
tp2078
a(I30
I649
tp2079
a(I39
I649
tp2080
a(I29
I650
tp2081
a(I39
I650
tp2082
a(I28
I651
tp2083
a(I39
I651
tp2084
a(I27
I652
tp2085
a(I39
I652
tp2086
a(I26
I653
tp2087
a(I39
I653
tp2088
a(I25
I654
tp2089
a(I39
I654
tp2090
a(I24
I655
tp2091
a(I39
I655
tp2092
a(I23
I656
tp2093
a(I22
I657
tp2094
a(I23
I657
tp2095
a(I24
I657
tp2096
a(I21
I657
tp2097
a(I25
I657
tp2098
a(I26
I657
tp2099
a(I27
I657
tp2100
a(I28
I657
tp2101
a(I29
I657
tp2102
a(I30
I657
tp2103
a(I31
I657
tp2104
a(I32
I657
tp2105
a(I33
I657
tp2106
a(I34
I657
tp2107
a(I35
I657
tp2108
a(I36
I657
tp2109
a(I37
I657
tp2110
asg191
g192
(g196
S'\xfe5\x86h\xe9z\x15@'
p2111
tp2112
Rp2113
sg202
g192
(g196
S'\x9a#\xcd\x91\xe6H\x1d@'
p2114
tp2115
Rp2116
sg206
I3
sg207
I594
sg208
g192
(g196
S"aC'\xe7T\xd6<@"
p2117
tp2118
Rp2119
sg212
I657
sg213
I63
sa(dp2120
g2
I507
sg3
I23
sg4
(lp2121
(I493
I597
tp2122
a(I492
I598
tp2123
a(I493
I598
tp2124
a(I494
I597
tp2125
a(I491
I599
tp2126
a(I492
I599
tp2127
a(I490
I600
tp2128
a(I491
I600
tp2129
a(I489
I601
tp2130
a(I490
I601
tp2131
a(I488
I602
tp2132
a(I489
I602
tp2133
a(I487
I603
tp2134
a(I488
I603
tp2135
a(I489
I603
tp2136
a(I486
I604
tp2137
a(I487
I604
tp2138
a(I488
I604
tp2139
a(I489
I604
tp2140
a(I485
I605
tp2141
a(I486
I605
tp2142
a(I487
I605
tp2143
a(I488
I605
tp2144
a(I489
I605
tp2145
a(I484
I606
tp2146
a(I485
I606
tp2147
a(I486
I606
tp2148
a(I487
I606
tp2149
a(I488
I606
tp2150
a(I489
I606
tp2151
a(I490
I606
tp2152
a(I484
I607
tp2153
a(I485
I607
tp2154
a(I486
I607
tp2155
a(I487
I607
tp2156
a(I488
I607
tp2157
a(I489
I607
tp2158
a(I490
I607
tp2159
a(I491
I606
tp2160
a(I491
I607
tp2161
a(I484
I608
tp2162
a(I485
I608
tp2163
a(I486
I608
tp2164
a(I487
I608
tp2165
a(I488
I608
tp2166
a(I489
I608
tp2167
a(I490
I608
tp2168
a(I492
I606
tp2169
a(I492
I607
tp2170
a(I491
I609
tp2171
a(I493
I606
tp2172
a(I493
I607
tp2173
a(I492
I610
tp2174
a(I494
I605
tp2175
a(I494
I606
tp2176
a(I494
I607
tp2177
a(I493
I611
tp2178
a(I495
I605
tp2179
a(I495
I606
tp2180
a(I495
I607
tp2181
a(I494
I612
tp2182
a(I496
I605
tp2183
a(I496
I606
tp2184
a(I496
I607
tp2185
a(I497
I605
tp2186
a(I497
I606
tp2187
a(I497
I607
tp2188
a(I498
I605
tp2189
a(I498
I606
tp2190
a(I498
I607
tp2191
a(I499
I605
tp2192
a(I499
I606
tp2193
a(I499
I607
tp2194
a(I500
I605
tp2195
a(I500
I606
tp2196
a(I501
I605
tp2197
a(I501
I606
tp2198
a(I502
I605
tp2199
a(I502
I606
tp2200
a(I503
I604
tp2201
a(I503
I605
tp2202
a(I503
I606
tp2203
a(I504
I604
tp2204
a(I504
I605
tp2205
a(I504
I606
tp2206
a(I505
I604
tp2207
a(I505
I605
tp2208
a(I505
I606
tp2209
a(I506
I604
tp2210
a(I506
I605
tp2211
a(I506
I606
tp2212
a(I507
I604
tp2213
a(I507
I605
tp2214
asg191
g192
(g196
S'\xfd\xc81\xb3D\xbe\xfb?'
p2215
tp2216
Rp2217
sg202
g192
(g196
S'\x84\x10B\x08!\x84\x08@'
p2218
tp2219
Rp2220
sg206
I484
sg207
I597
sg208
g192
(g196
S'\xddo\xc7>\x7f\r\x08@'
p2221
tp2222
Rp2223
sg212
I612
sg213
I15
sa(dp2224
g2
I506
sg3
I24
sg4
(lp2225
(I488
I614
tp2226
a(I487
I615
tp2227
a(I488
I615
tp2228
a(I489
I614
tp2229
a(I489
I615
tp2230
a(I486
I616
tp2231
a(I487
I616
tp2232
a(I488
I616
tp2233
a(I489
I616
tp2234
a(I490
I614
tp2235
a(I490
I615
tp2236
a(I490
I616
tp2237
a(I485
I617
tp2238
a(I486
I617
tp2239
a(I487
I617
tp2240
a(I491
I614
tp2241
a(I491
I615
tp2242
a(I491
I616
tp2243
a(I484
I618
tp2244
a(I485
I618
tp2245
a(I486
I618
tp2246
a(I492
I614
tp2247
a(I492
I615
tp2248
a(I492
I616
tp2249
a(I484
I619
tp2250
a(I485
I619
tp2251
a(I493
I614
tp2252
a(I493
I615
tp2253
a(I493
I616
tp2254
a(I493
I617
tp2255
a(I483
I620
tp2256
a(I484
I620
tp2257
a(I485
I620
tp2258
a(I494
I614
tp2259
a(I494
I615
tp2260
a(I494
I616
tp2261
a(I494
I617
tp2262
a(I494
I618
tp2263
a(I483
I621
tp2264
a(I484
I621
tp2265
a(I485
I621
tp2266
a(I495
I615
tp2267
a(I495
I616
tp2268
a(I495
I617
tp2269
a(I495
I618
tp2270
a(I494
I619
tp2271
a(I495
I619
tp2272
a(I482
I622
tp2273
a(I483
I622
tp2274
a(I484
I622
tp2275
a(I485
I622
tp2276
a(I496
I616
tp2277
a(I496
I617
tp2278
a(I496
I618
tp2279
a(I496
I619
tp2280
a(I494
I620
tp2281
a(I495
I620
tp2282
a(I496
I620
tp2283
a(I482
I623
tp2284
a(I483
I623
tp2285
a(I484
I623
tp2286
a(I485
I623
tp2287
a(I494
I621
tp2288
a(I495
I621
tp2289
a(I496
I621
tp2290
a(I482
I624
tp2291
a(I483
I624
tp2292
a(I484
I624
tp2293
a(I485
I624
tp2294
a(I494
I622
tp2295
a(I495
I622
tp2296
a(I496
I622
tp2297
a(I497
I622
tp2298
a(I483
I625
tp2299
a(I484
I625
tp2300
a(I485
I625
tp2301
a(I486
I625
tp2302
a(I494
I623
tp2303
a(I495
I623
tp2304
a(I496
I623
tp2305
a(I497
I623
tp2306
a(I498
I622
tp2307
a(I498
I623
tp2308
a(I484
I626
tp2309
a(I485
I626
tp2310
a(I486
I626
tp2311
a(I487
I626
tp2312
a(I494
I624
tp2313
a(I495
I624
tp2314
a(I496
I624
tp2315
a(I497
I624
tp2316
a(I498
I624
tp2317
a(I499
I622
tp2318
a(I499
I623
tp2319
a(I499
I624
tp2320
a(I484
I627
tp2321
a(I485
I627
tp2322
a(I486
I627
tp2323
a(I487
I627
tp2324
a(I488
I626
tp2325
a(I488
I627
tp2326
a(I493
I624
tp2327
a(I493
I625
tp2328
a(I494
I625
tp2329
a(I495
I625
tp2330
a(I497
I625
tp2331
a(I498
I625
tp2332
a(I500
I622
tp2333
a(I500
I623
tp2334
a(I486
I628
tp2335
a(I487
I628
tp2336
a(I488
I628
tp2337
a(I489
I626
tp2338
a(I489
I627
tp2339
a(I489
I628
tp2340
a(I492
I625
tp2341
a(I492
I626
tp2342
a(I493
I626
tp2343
a(I494
I626
tp2344
a(I495
I626
tp2345
a(I501
I621
tp2346
a(I501
I622
tp2347
a(I501
I623
tp2348
a(I490
I626
tp2349
a(I490
I627
tp2350
a(I490
I628
tp2351
a(I491
I626
tp2352
a(I491
I627
tp2353
a(I492
I627
tp2354
a(I493
I627
tp2355
a(I494
I627
tp2356
a(I502
I621
tp2357
a(I502
I622
tp2358
a(I503
I620
tp2359
a(I503
I621
tp2360
a(I504
I619
tp2361
a(I504
I620
tp2362
a(I504
I621
tp2363
a(I505
I618
tp2364
a(I505
I619
tp2365
a(I505
I620
tp2366
a(I506
I617
tp2367
a(I506
I618
tp2368
a(I506
I619
tp2369
asg191
g192
(g196
S'r`\x17\xbe\x89=\xfd?'
p2370
tp2371
Rp2372
sg202
g192
(g196
S'\xab\xaa\xaa\xaa\xaa*\x08@'
p2373
tp2374
Rp2375
sg206
I482
sg207
I614
sg208
g192
(g196
S'\x00\x00\x00\x00\x00\xb8\n@'
p2376
tp2377
Rp2378
sg212
I628
sg213
I14
sa(dp2379
g2
I504
sg3
I26
sg4
(lp2380
(I482
I634
tp2381
a(I481
I635
tp2382
a(I482
I635
tp2383
a(I483
I634
tp2384
a(I483
I635
tp2385
a(I481
I636
tp2386
a(I482
I636
tp2387
a(I483
I636
tp2388
a(I481
I637
tp2389
a(I482
I637
tp2390
a(I483
I637
tp2391
a(I481
I638
tp2392
a(I482
I638
tp2393
a(I483
I638
tp2394
a(I481
I639
tp2395
a(I482
I639
tp2396
a(I483
I639
tp2397
a(I481
I640
tp2398
a(I482
I640
tp2399
a(I483
I640
tp2400
a(I481
I641
tp2401
a(I482
I641
tp2402
a(I483
I641
tp2403
a(I480
I642
tp2404
a(I481
I642
tp2405
a(I482
I642
tp2406
a(I483
I642
tp2407
a(I479
I641
tp2408
a(I480
I643
tp2409
a(I481
I643
tp2410
a(I482
I643
tp2411
a(I483
I643
tp2412
a(I484
I643
tp2413
a(I478
I640
tp2414
a(I480
I644
tp2415
a(I481
I644
tp2416
a(I482
I644
tp2417
a(I483
I644
tp2418
a(I484
I644
tp2419
a(I485
I643
tp2420
a(I485
I644
tp2421
a(I480
I645
tp2422
a(I481
I645
tp2423
a(I482
I645
tp2424
a(I483
I645
tp2425
a(I484
I645
tp2426
a(I485
I645
tp2427
a(I486
I643
tp2428
a(I486
I644
tp2429
a(I486
I645
tp2430
a(I480
I646
tp2431
a(I481
I646
tp2432
a(I482
I646
tp2433
a(I483
I646
tp2434
a(I484
I646
tp2435
a(I487
I643
tp2436
a(I487
I644
tp2437
a(I487
I645
tp2438
a(I480
I647
tp2439
a(I481
I647
tp2440
a(I482
I647
tp2441
a(I488
I642
tp2442
a(I488
I643
tp2443
a(I488
I644
tp2444
a(I487
I641
tp2445
a(I489
I643
tp2446
a(I486
I640
tp2447
a(I490
I643
tp2448
a(I485
I639
tp2449
a(I490
I642
tp2450
a(I491
I642
tp2451
a(I490
I641
tp2452
a(I491
I641
tp2453
a(I492
I641
tp2454
a(I492
I642
tp2455
a(I492
I640
tp2456
a(I493
I640
tp2457
a(I493
I641
tp2458
a(I494
I640
tp2459
a(I494
I641
tp2460
a(I495
I639
tp2461
a(I495
I640
tp2462
a(I496
I639
tp2463
a(I496
I640
tp2464
a(I497
I638
tp2465
a(I497
I639
tp2466
a(I498
I637
tp2467
a(I498
I638
tp2468
a(I498
I639
tp2469
a(I499
I637
tp2470
a(I499
I638
tp2471
a(I499
I639
tp2472
a(I500
I636
tp2473
a(I500
I637
tp2474
a(I500
I638
tp2475
a(I500
I640
tp2476
a(I501
I637
tp2477
a(I501
I641
tp2478
a(I502
I637
tp2479
a(I502
I642
tp2480
a(I502
I636
tp2481
a(I503
I636
tp2482
a(I503
I643
tp2483
a(I502
I635
tp2484
a(I503
I635
tp2485
a(I504
I635
tp2486
a(I504
I636
tp2487
a(I504
I644
tp2488
a(I504
I634
tp2489
asg191
g192
(g196
S'\x0eP\xae\x81\xa3D\xfd?'
p2490
tp2491
Rp2492
sg202
g192
(g196
S'1\xb7:#\x15s\x0b@'
p2493
tp2494
Rp2495
sg206
I478
sg207
I634
sg208
g192
(g196
S'\x1b\x896\x95\xfb\xc4\n@'
p2496
tp2497
Rp2498
sg212
I647
sg213
I13
sa(dp2499
g2
I434
sg3
I36
sg4
(lp2500
(I416
I809
tp2501
a(I415
I810
tp2502
a(I417
I809
tp2503
a(I417
I810
tp2504
a(I414
I811
tp2505
a(I415
I811
tp2506
a(I418
I809
tp2507
a(I417
I811
tp2508
a(I413
I811
tp2509
a(I413
I812
tp2510
a(I414
I812
tp2511
a(I418
I812
tp2512
a(I412
I811
tp2513
a(I414
I813
tp2514
a(I418
I813
tp2515
a(I419
I811
tp2516
a(I419
I812
tp2517
a(I419
I813
tp2518
a(I418
I814
tp2519
a(I419
I814
tp2520
a(I419
I810
tp2521
a(I420
I810
tp2522
a(I420
I811
tp2523
a(I420
I812
tp2524
a(I420
I813
tp2525
a(I420
I814
tp2526
a(I418
I815
tp2527
a(I419
I815
tp2528
a(I420
I815
tp2529
a(I419
I809
tp2530
a(I420
I809
tp2531
a(I421
I809
tp2532
a(I421
I810
tp2533
a(I421
I811
tp2534
a(I421
I812
tp2535
a(I421
I813
tp2536
a(I421
I814
tp2537
a(I421
I815
tp2538
a(I417
I816
tp2539
a(I418
I816
tp2540
a(I419
I816
tp2541
a(I420
I816
tp2542
a(I421
I816
tp2543
a(I422
I810
tp2544
a(I422
I811
tp2545
a(I422
I812
tp2546
a(I422
I813
tp2547
a(I422
I814
tp2548
a(I422
I815
tp2549
a(I422
I816
tp2550
a(I417
I817
tp2551
a(I418
I817
tp2552
a(I419
I817
tp2553
a(I420
I817
tp2554
a(I421
I817
tp2555
a(I422
I817
tp2556
a(I423
I809
tp2557
a(I423
I810
tp2558
a(I423
I811
tp2559
a(I423
I812
tp2560
a(I423
I813
tp2561
a(I423
I814
tp2562
a(I423
I815
tp2563
a(I423
I816
tp2564
a(I423
I817
tp2565
a(I418
I818
tp2566
a(I419
I818
tp2567
a(I420
I818
tp2568
a(I421
I818
tp2569
a(I423
I818
tp2570
a(I424
I810
tp2571
a(I424
I811
tp2572
a(I424
I812
tp2573
a(I424
I813
tp2574
a(I424
I814
tp2575
a(I424
I815
tp2576
a(I424
I816
tp2577
a(I424
I817
tp2578
a(I417
I819
tp2579
a(I418
I819
tp2580
a(I419
I819
tp2581
a(I420
I819
tp2582
a(I421
I819
tp2583
a(I423
I819
tp2584
a(I425
I812
tp2585
a(I425
I813
tp2586
a(I425
I814
tp2587
a(I425
I815
tp2588
a(I425
I816
tp2589
a(I425
I817
tp2590
a(I416
I819
tp2591
a(I416
I820
tp2592
a(I417
I820
tp2593
a(I418
I820
tp2594
a(I419
I820
tp2595
a(I420
I820
tp2596
a(I421
I820
tp2597
a(I422
I820
tp2598
a(I423
I820
tp2599
a(I426
I813
tp2600
a(I426
I814
tp2601
a(I426
I815
tp2602
a(I426
I816
tp2603
a(I426
I817
tp2604
a(I415
I818
tp2605
a(I415
I819
tp2606
a(I415
I820
tp2607
a(I415
I821
tp2608
a(I416
I821
tp2609
a(I417
I821
tp2610
a(I418
I821
tp2611
a(I419
I821
tp2612
a(I420
I821
tp2613
a(I421
I821
tp2614
a(I423
I821
tp2615
a(I414
I818
tp2616
a(I414
I819
tp2617
a(I414
I820
tp2618
a(I414
I821
tp2619
a(I414
I822
tp2620
a(I415
I822
tp2621
a(I416
I822
tp2622
a(I417
I822
tp2623
a(I418
I822
tp2624
a(I419
I822
tp2625
a(I420
I822
tp2626
a(I421
I822
tp2627
a(I422
I822
tp2628
a(I424
I822
tp2629
a(I413
I819
tp2630
a(I413
I820
tp2631
a(I413
I821
tp2632
a(I413
I822
tp2633
a(I413
I823
tp2634
a(I414
I823
tp2635
a(I415
I823
tp2636
a(I416
I823
tp2637
a(I417
I823
tp2638
a(I418
I823
tp2639
a(I419
I823
tp2640
a(I420
I823
tp2641
a(I421
I823
tp2642
a(I423
I823
tp2643
a(I424
I823
tp2644
a(I425
I821
tp2645
a(I425
I822
tp2646
a(I412
I820
tp2647
a(I412
I821
tp2648
a(I412
I822
tp2649
a(I412
I823
tp2650
a(I412
I824
tp2651
a(I413
I824
tp2652
a(I414
I824
tp2653
a(I415
I824
tp2654
a(I416
I824
tp2655
a(I417
I824
tp2656
a(I418
I824
tp2657
a(I419
I824
tp2658
a(I420
I824
tp2659
a(I421
I824
tp2660
a(I422
I824
tp2661
a(I424
I824
tp2662
a(I423
I824
tp2663
a(I425
I820
tp2664
a(I426
I820
tp2665
a(I426
I823
tp2666
a(I411
I821
tp2667
a(I411
I822
tp2668
a(I411
I823
tp2669
a(I411
I824
tp2670
a(I411
I825
tp2671
a(I412
I825
tp2672
a(I413
I825
tp2673
a(I414
I825
tp2674
a(I415
I825
tp2675
a(I416
I825
tp2676
a(I417
I825
tp2677
a(I418
I825
tp2678
a(I419
I825
tp2679
a(I420
I825
tp2680
a(I421
I825
tp2681
a(I422
I825
tp2682
a(I423
I825
tp2683
a(I425
I819
tp2684
a(I426
I819
tp2685
a(I427
I822
tp2686
a(I427
I824
tp2687
a(I410
I823
tp2688
a(I410
I824
tp2689
a(I410
I825
tp2690
a(I410
I826
tp2691
a(I411
I826
tp2692
a(I412
I826
tp2693
a(I413
I826
tp2694
a(I414
I826
tp2695
a(I415
I826
tp2696
a(I416
I826
tp2697
a(I417
I826
tp2698
a(I418
I826
tp2699
a(I419
I826
tp2700
a(I420
I826
tp2701
a(I421
I826
tp2702
a(I422
I826
tp2703
a(I428
I821
tp2704
a(I428
I825
tp2705
a(I409
I824
tp2706
a(I409
I825
tp2707
a(I409
I826
tp2708
a(I409
I827
tp2709
a(I410
I827
tp2710
a(I411
I827
tp2711
a(I412
I827
tp2712
a(I413
I827
tp2713
a(I414
I827
tp2714
a(I415
I827
tp2715
a(I416
I827
tp2716
a(I417
I827
tp2717
a(I418
I827
tp2718
a(I419
I827
tp2719
a(I420
I827
tp2720
a(I421
I827
tp2721
a(I429
I820
tp2722
a(I408
I824
tp2723
a(I408
I825
tp2724
a(I408
I826
tp2725
a(I408
I827
tp2726
a(I408
I828
tp2727
a(I409
I828
tp2728
a(I410
I828
tp2729
a(I411
I828
tp2730
a(I412
I828
tp2731
a(I413
I828
tp2732
a(I414
I828
tp2733
a(I415
I828
tp2734
a(I416
I828
tp2735
a(I417
I828
tp2736
a(I418
I828
tp2737
a(I419
I828
tp2738
a(I420
I828
tp2739
a(I430
I819
tp2740
a(I407
I825
tp2741
a(I407
I826
tp2742
a(I407
I827
tp2743
a(I407
I828
tp2744
a(I407
I829
tp2745
a(I408
I829
tp2746
a(I409
I829
tp2747
a(I410
I829
tp2748
a(I411
I829
tp2749
a(I412
I829
tp2750
a(I413
I829
tp2751
a(I414
I829
tp2752
a(I415
I829
tp2753
a(I416
I829
tp2754
a(I417
I829
tp2755
a(I418
I829
tp2756
a(I419
I829
tp2757
a(I431
I818
tp2758
a(I406
I826
tp2759
a(I406
I827
tp2760
a(I406
I828
tp2761
a(I406
I829
tp2762
a(I406
I830
tp2763
a(I407
I830
tp2764
a(I408
I830
tp2765
a(I409
I830
tp2766
a(I410
I830
tp2767
a(I411
I830
tp2768
a(I412
I830
tp2769
a(I413
I830
tp2770
a(I414
I830
tp2771
a(I415
I830
tp2772
a(I416
I830
tp2773
a(I417
I830
tp2774
a(I418
I830
tp2775
a(I432
I817
tp2776
a(I405
I826
tp2777
a(I405
I827
tp2778
a(I405
I828
tp2779
a(I405
I829
tp2780
a(I405
I830
tp2781
a(I405
I831
tp2782
a(I406
I831
tp2783
a(I407
I831
tp2784
a(I408
I831
tp2785
a(I409
I831
tp2786
a(I410
I831
tp2787
a(I411
I831
tp2788
a(I412
I831
tp2789
a(I413
I831
tp2790
a(I414
I831
tp2791
a(I415
I831
tp2792
a(I416
I831
tp2793
a(I417
I831
tp2794
a(I433
I816
tp2795
a(I404
I827
tp2796
a(I404
I828
tp2797
a(I404
I829
tp2798
a(I404
I830
tp2799
a(I404
I831
tp2800
a(I405
I832
tp2801
a(I406
I832
tp2802
a(I407
I832
tp2803
a(I408
I832
tp2804
a(I409
I832
tp2805
a(I410
I832
tp2806
a(I411
I832
tp2807
a(I412
I832
tp2808
a(I413
I832
tp2809
a(I414
I832
tp2810
a(I415
I832
tp2811
a(I434
I815
tp2812
a(I403
I828
tp2813
a(I403
I829
tp2814
a(I403
I830
tp2815
a(I407
I833
tp2816
a(I408
I833
tp2817
a(I409
I833
tp2818
a(I410
I833
tp2819
a(I411
I833
tp2820
a(I412
I833
tp2821
a(I402
I829
tp2822
a(I402
I830
tp2823
a(I406
I834
tp2824
a(I413
I834
tp2825
a(I405
I834
tp2826
a(I414
I834
tp2827
a(I404
I834
tp2828
a(I415
I834
tp2829
a(I403
I833
tp2830
a(I403
I834
tp2831
a(I416
I834
tp2832
a(I402
I832
tp2833
a(I402
I833
tp2834
a(I402
I834
tp2835
a(I417
I834
tp2836
a(I401
I831
tp2837
a(I401
I832
tp2838
a(I401
I833
tp2839
a(I401
I834
tp2840
a(I418
I835
tp2841
a(I400
I833
tp2842
a(I400
I834
tp2843
a(I417
I836
tp2844
a(I419
I834
tp2845
a(I419
I836
tp2846
a(I399
I835
tp2847
a(I416
I837
tp2848
a(I418
I837
tp2849
a(I420
I833
tp2850
a(I399
I836
tp2851
a(I400
I835
tp2852
a(I400
I836
tp2853
a(I415
I838
tp2854
a(I417
I838
tp2855
a(I399
I837
tp2856
a(I414
I839
tp2857
a(I416
I839
tp2858
a(I398
I838
tp2859
a(I399
I838
tp2860
a(I413
I840
tp2861
a(I415
I840
tp2862
a(I398
I839
tp2863
a(I412
I841
tp2864
a(I414
I841
tp2865
a(I398
I840
tp2866
a(I411
I842
tp2867
a(I413
I842
tp2868
a(I398
I841
tp2869
a(I410
I843
tp2870
a(I412
I843
tp2871
a(I409
I844
tp2872
a(I411
I844
tp2873
a(I408
I845
tp2874
asg191
g192
(g196
S'G\x8e}d,\r\x0e@'
p2875
tp2876
Rp2877
sg202
g192
(g196
S'5{\x92\xefc5!@'
p2878
tp2879
Rp2880
sg206
I398
sg207
I809
sg208
g192
(g196
S'^\xa6\xba\xa8\xb88,@'
p2881
tp2882
Rp2883
sg212
I845
sg213
I36
sa.