(lp0
(dp1
S'X2'
p2
I40
sS'width'
p3
I38
sS'points'
p4
(lp5
(I14
I123
tp6
a(I14
I124
tp7
a(I13
I125
tp8
a(I14
I125
tp9
a(I15
I125
tp10
a(I13
I126
tp11
a(I14
I126
tp12
a(I15
I126
tp13
a(I16
I125
tp14
a(I16
I126
tp15
a(I13
I127
tp16
a(I14
I127
tp17
a(I15
I127
tp18
a(I16
I127
tp19
a(I17
I125
tp20
a(I17
I126
tp21
a(I17
I127
tp22
a(I13
I128
tp23
a(I14
I128
tp24
a(I15
I128
tp25
a(I16
I128
tp26
a(I17
I128
tp27
a(I18
I125
tp28
a(I18
I126
tp29
a(I18
I128
tp30
a(I14
I129
tp31
a(I18
I129
tp32
a(I19
I128
tp33
a(I19
I129
tp34
a(I14
I130
tp35
a(I18
I130
tp36
a(I19
I130
tp37
a(I20
I129
tp38
a(I20
I130
tp39
a(I14
I131
tp40
a(I21
I129
tp41
a(I21
I130
tp42
a(I21
I131
tp43
a(I14
I132
tp44
a(I22
I129
tp45
a(I22
I130
tp46
a(I22
I131
tp47
a(I22
I132
tp48
a(I13
I133
tp49
a(I14
I133
tp50
a(I23
I129
tp51
a(I23
I130
tp52
a(I23
I132
tp53
a(I22
I133
tp54
a(I23
I133
tp55
a(I13
I134
tp56
a(I14
I134
tp57
a(I24
I129
tp58
a(I22
I134
tp59
a(I23
I134
tp60
a(I24
I134
tp61
a(I13
I135
tp62
a(I14
I135
tp63
a(I25
I129
tp64
a(I25
I130
tp65
a(I22
I135
tp66
a(I23
I135
tp67
a(I24
I135
tp68
a(I25
I133
tp69
a(I13
I136
tp70
a(I14
I136
tp71
a(I26
I129
tp72
a(I26
I130
tp73
a(I25
I131
tp74
a(I26
I131
tp75
a(I23
I136
tp76
a(I24
I136
tp77
a(I25
I132
tp78
a(I26
I132
tp79
a(I26
I133
tp80
a(I12
I136
tp81
a(I12
I137
tp82
a(I14
I137
tp83
a(I27
I129
tp84
a(I27
I130
tp85
a(I27
I131
tp86
a(I27
I132
tp87
a(I23
I137
tp88
a(I24
I137
tp89
a(I27
I133
tp90
a(I11
I137
tp91
a(I11
I138
tp92
a(I12
I138
tp93
a(I28
I129
tp94
a(I28
I130
tp95
a(I28
I131
tp96
a(I28
I132
tp97
a(I28
I133
tp98
a(I23
I138
tp99
a(I24
I138
tp100
a(I10
I138
tp101
a(I10
I139
tp102
a(I12
I139
tp103
a(I13
I139
tp104
a(I29
I134
tp105
a(I23
I139
tp106
a(I9
I139
tp107
a(I9
I140
tp108
a(I30
I135
tp109
a(I23
I140
tp110
a(I24
I140
tp111
a(I8
I140
tp112
a(I10
I141
tp113
a(I31
I136
tp114
a(I24
I141
tp115
a(I7
I140
tp116
a(I7
I141
tp117
a(I11
I142
tp118
a(I32
I137
tp119
a(I6
I140
tp120
a(I6
I141
tp121
a(I6
I142
tp122
a(I33
I138
tp123
a(I5
I141
tp124
a(I5
I142
tp125
a(I32
I139
tp126
a(I33
I139
tp127
a(I34
I139
tp128
a(I4
I141
tp129
a(I4
I142
tp130
a(I4
I143
tp131
a(I31
I139
tp132
a(I31
I140
tp133
a(I32
I140
tp134
a(I33
I140
tp135
a(I34
I140
tp136
a(I35
I139
tp137
a(I35
I140
tp138
a(I3
I141
tp139
a(I3
I142
tp140
a(I3
I143
tp141
a(I3
I144
tp142
a(I31
I141
tp143
a(I32
I141
tp144
a(I33
I141
tp145
a(I34
I141
tp146
a(I35
I141
tp147
a(I36
I139
tp148
a(I36
I140
tp149
a(I36
I141
tp150
a(I2
I141
tp151
a(I2
I142
tp152
a(I2
I143
tp153
a(I2
I144
tp154
a(I2
I145
tp155
a(I31
I142
tp156
a(I32
I142
tp157
a(I33
I142
tp158
a(I34
I142
tp159
a(I35
I142
tp160
a(I36
I142
tp161
a(I37
I139
tp162
a(I37
I140
tp163
a(I37
I141
tp164
a(I37
I142
tp165
a(I31
I143
tp166
a(I32
I143
tp167
a(I33
I143
tp168
a(I34
I143
tp169
a(I35
I143
tp170
a(I36
I143
tp171
a(I37
I143
tp172
a(I38
I140
tp173
a(I38
I141
tp174
a(I38
I142
tp175
a(I38
I143
tp176
a(I32
I144
tp177
a(I33
I144
tp178
a(I34
I144
tp179
a(I35
I144
tp180
a(I36
I144
tp181
a(I37
I144
tp182
a(I38
I144
tp183
a(I39
I141
tp184
a(I39
I142
tp185
a(I39
I143
tp186
a(I39
I144
tp187
a(I32
I145
tp188
a(I33
I145
tp189
a(I34
I145
tp190
a(I37
I145
tp191
a(I38
I145
tp192
a(I39
I145
tp193
a(I40
I142
tp194
a(I40
I143
tp195
a(I40
I144
tp196
asS'deviation'
p197
cnumpy.core.multiarray
scalar
p198
(cnumpy
dtype
p199
(S'f8'
p200
I0
I1
tp201
Rp202
(I3
S'<'
p203
NNNI-1
I-1
I0
tp204
bS'\xde\xa7F\xeb|X\x0c@'
p205
tp206
Rp207
sS'mean'
p208
g198
(g202
S'~\xde&\xddeL\x15@'
p209
tp210
Rp211
sS'X'
p212
I2
sS'Y'
p213
I123
sS'variance'
p214
g198
(g202
S'\x85P\xb1L\xcf\x1b)@'
p215
tp216
Rp217
sS'Y2'
p218
I145
sS'height'
p219
I22
sa(dp220
g2
I46
sg3
I35
sg4
(lp221
(I20
I219
tp222
a(I21
I219
tp223
a(I21
I220
tp224
a(I22
I220
tp225
a(I21
I221
tp226
a(I22
I221
tp227
a(I22
I222
tp228
a(I21
I223
tp229
a(I22
I223
tp230
a(I21
I224
tp231
a(I22
I224
tp232
a(I20
I225
tp233
a(I22
I225
tp234
a(I21
I226
tp235
a(I22
I226
tp236
a(I22
I227
tp237
a(I21
I228
tp238
a(I22
I228
tp239
a(I23
I228
tp240
a(I21
I229
tp241
a(I22
I229
tp242
a(I23
I229
tp243
a(I24
I229
tp244
a(I20
I230
tp245
a(I21
I230
tp246
a(I22
I230
tp247
a(I23
I230
tp248
a(I24
I230
tp249
a(I25
I230
tp250
a(I19
I231
tp251
a(I20
I231
tp252
a(I21
I231
tp253
a(I22
I231
tp254
a(I23
I231
tp255
a(I24
I231
tp256
a(I25
I231
tp257
a(I20
I232
tp258
a(I21
I232
tp259
a(I22
I232
tp260
a(I23
I232
tp261
a(I24
I232
tp262
a(I25
I232
tp263
a(I26
I232
tp264
a(I21
I233
tp265
a(I22
I233
tp266
a(I23
I233
tp267
a(I24
I233
tp268
a(I25
I233
tp269
a(I26
I233
tp270
a(I27
I233
tp271
a(I21
I234
tp272
a(I22
I234
tp273
a(I23
I234
tp274
a(I24
I234
tp275
a(I25
I234
tp276
a(I26
I234
tp277
a(I28
I234
tp278
a(I22
I235
tp279
a(I23
I235
tp280
a(I24
I235
tp281
a(I25
I235
tp282
a(I26
I235
tp283
a(I27
I235
tp284
a(I28
I235
tp285
a(I29
I234
tp286
a(I29
I235
tp287
a(I23
I236
tp288
a(I24
I236
tp289
a(I25
I236
tp290
a(I26
I236
tp291
a(I27
I236
tp292
a(I28
I236
tp293
a(I29
I236
tp294
a(I30
I235
tp295
a(I30
I236
tp296
a(I23
I237
tp297
a(I24
I237
tp298
a(I25
I237
tp299
a(I26
I237
tp300
a(I27
I237
tp301
a(I28
I237
tp302
a(I29
I237
tp303
a(I30
I237
tp304
a(I23
I238
tp305
a(I24
I238
tp306
a(I25
I238
tp307
a(I31
I238
tp308
a(I23
I239
tp309
a(I24
I239
tp310
a(I32
I237
tp311
a(I32
I238
tp312
a(I32
I239
tp313
a(I23
I240
tp314
a(I24
I240
tp315
a(I32
I236
tp316
a(I33
I236
tp317
a(I33
I237
tp318
a(I33
I238
tp319
a(I33
I239
tp320
a(I32
I240
tp321
a(I33
I240
tp322
a(I22
I241
tp323
a(I32
I235
tp324
a(I33
I235
tp325
a(I34
I235
tp326
a(I34
I236
tp327
a(I34
I237
tp328
a(I34
I238
tp329
a(I34
I239
tp330
a(I34
I240
tp331
a(I32
I241
tp332
a(I33
I241
tp333
a(I34
I241
tp334
a(I22
I242
tp335
a(I33
I234
tp336
a(I34
I234
tp337
a(I35
I235
tp338
a(I35
I236
tp339
a(I35
I237
tp340
a(I35
I238
tp341
a(I35
I239
tp342
a(I35
I240
tp343
a(I35
I241
tp344
a(I32
I242
tp345
a(I33
I242
tp346
a(I34
I242
tp347
a(I22
I243
tp348
a(I23
I243
tp349
a(I36
I235
tp350
a(I36
I236
tp351
a(I36
I237
tp352
a(I36
I238
tp353
a(I36
I239
tp354
a(I36
I240
tp355
a(I36
I241
tp356
a(I31
I243
tp357
a(I32
I243
tp358
a(I33
I243
tp359
a(I34
I243
tp360
a(I35
I243
tp361
a(I21
I244
tp362
a(I22
I244
tp363
a(I23
I244
tp364
a(I24
I244
tp365
a(I37
I237
tp366
a(I37
I238
tp367
a(I37
I239
tp368
a(I37
I240
tp369
a(I30
I244
tp370
a(I31
I244
tp371
a(I32
I244
tp372
a(I33
I244
tp373
a(I34
I244
tp374
a(I35
I244
tp375
a(I36
I243
tp376
a(I36
I244
tp377
a(I21
I245
tp378
a(I22
I245
tp379
a(I23
I245
tp380
a(I24
I245
tp381
a(I25
I244
tp382
a(I25
I245
tp383
a(I38
I239
tp384
a(I38
I240
tp385
a(I29
I244
tp386
a(I37
I244
tp387
a(I37
I245
tp388
a(I20
I246
tp389
a(I21
I246
tp390
a(I22
I246
tp391
a(I23
I246
tp392
a(I24
I246
tp393
a(I25
I246
tp394
a(I26
I244
tp395
a(I26
I245
tp396
a(I26
I246
tp397
a(I39
I240
tp398
a(I38
I241
tp399
a(I39
I241
tp400
a(I38
I245
tp401
a(I38
I246
tp402
a(I21
I247
tp403
a(I22
I247
tp404
a(I27
I244
tp405
a(I27
I245
tp406
a(I27
I246
tp407
a(I27
I247
tp408
a(I39
I242
tp409
a(I39
I246
tp410
a(I38
I247
tp411
a(I21
I248
tp412
a(I23
I248
tp413
a(I28
I244
tp414
a(I28
I245
tp415
a(I28
I246
tp416
a(I28
I247
tp417
a(I40
I243
tp418
a(I20
I249
tp419
a(I24
I249
tp420
a(I41
I243
tp421
a(I41
I244
tp422
a(I19
I248
tp423
a(I19
I249
tp424
a(I25
I250
tp425
a(I42
I244
tp426
a(I41
I245
tp427
a(I42
I245
tp428
a(I18
I247
tp429
a(I18
I248
tp430
a(I18
I249
tp431
a(I26
I251
tp432
a(I43
I243
tp433
a(I40
I246
tp434
a(I41
I246
tp435
a(I42
I246
tp436
a(I43
I246
tp437
a(I17
I246
tp438
a(I17
I247
tp439
a(I17
I248
tp440
a(I18
I246
tp441
a(I17
I249
tp442
a(I27
I252
tp443
a(I44
I242
tp444
a(I44
I244
tp445
a(I41
I247
tp446
a(I42
I247
tp447
a(I43
I247
tp448
a(I17
I245
tp449
a(I18
I245
tp450
a(I16
I248
tp451
a(I16
I249
tp452
a(I45
I243
tp453
a(I45
I244
tp454
a(I45
I245
tp455
a(I15
I248
tp456
a(I15
I249
tp457
a(I46
I245
tp458
a(I45
I246
tp459
a(I46
I246
tp460
a(I14
I247
tp461
a(I14
I248
tp462
a(I14
I249
tp463
a(I45
I247
tp464
a(I46
I247
tp465
a(I13
I248
tp466
a(I14
I246
tp467
a(I13
I249
tp468
a(I44
I248
tp469
a(I13
I245
tp470
a(I14
I245
tp471
a(I43
I249
tp472
a(I12
I244
tp473
a(I13
I244
tp474
a(I42
I250
tp475
a(I11
I243
tp476
a(I12
I243
tp477
a(I13
I243
tp478
a(I41
I251
tp479
a(I12
I242
tp480
a(I13
I242
tp481
a(I14
I242
tp482
a(I40
I252
tp483
a(I13
I241
tp484
a(I14
I241
tp485
a(I39
I253
tp486
a(I14
I240
tp487
a(I14
I239
tp488
a(I15
I239
tp489
a(I15
I238
tp490
a(I15
I237
tp491
asg197
g198
(g202
S'\xd4p\xab^>\x03\x02@'
p492
tp493
Rp494
sg208
g198
(g202
S'\x11\x11\x11\x11\x11\x11\x11@'
p495
tp496
Rp497
sg212
I11
sg213
I219
sg214
g198
(g202
S'\t^X\xfdLG\x14@'
p498
tp499
Rp500
sg218
I253
sg219
I34
sa(dp501
g2
I362
sg3
I29
sg4
(lp502
(I351
I244
tp503
a(I351
I245
tp504
a(I350
I246
tp505
a(I351
I246
tp506
a(I352
I246
tp507
a(I349
I247
tp508
a(I350
I247
tp509
a(I351
I247
tp510
a(I352
I247
tp511
a(I353
I246
tp512
a(I353
I247
tp513
a(I348
I247
tp514
a(I351
I248
tp515
a(I352
I248
tp516
a(I353
I248
tp517
a(I354
I246
tp518
a(I354
I247
tp519
a(I354
I248
tp520
a(I347
I247
tp521
a(I350
I249
tp522
a(I354
I249
tp523
a(I355
I246
tp524
a(I355
I247
tp525
a(I355
I248
tp526
a(I355
I249
tp527
a(I346
I247
tp528
a(I349
I250
tp529
a(I355
I250
tp530
a(I356
I247
tp531
a(I356
I248
tp532
a(I356
I249
tp533
a(I356
I250
tp534
a(I345
I247
tp535
a(I345
I248
tp536
a(I348
I251
tp537
a(I356
I251
tp538
a(I357
I248
tp539
a(I357
I249
tp540
a(I357
I250
tp541
a(I357
I251
tp542
a(I344
I247
tp543
a(I344
I248
tp544
a(I356
I252
tp545
a(I357
I252
tp546
a(I358
I248
tp547
a(I358
I249
tp548
a(I358
I250
tp549
a(I358
I251
tp550
a(I343
I247
tp551
a(I343
I248
tp552
a(I356
I253
tp553
a(I357
I253
tp554
a(I358
I253
tp555
a(I359
I249
tp556
a(I342
I247
tp557
a(I342
I248
tp558
a(I356
I254
tp559
a(I357
I254
tp560
a(I359
I253
tp561
a(I360
I250
tp562
a(I341
I247
tp563
a(I341
I248
tp564
a(I355
I255
tp565
a(I356
I255
tp566
a(I357
I255
tp567
a(I358
I255
tp568
a(I361
I249
tp569
a(I340
I247
tp570
a(I340
I248
tp571
a(I354
I255
tp572
a(I354
I256
tp573
a(I355
I256
tp574
a(I356
I256
tp575
a(I357
I256
tp576
a(I358
I256
tp577
a(I359
I255
tp578
a(I359
I256
tp579
a(I362
I248
tp580
a(I339
I246
tp581
a(I339
I248
tp582
a(I354
I257
tp583
a(I355
I257
tp584
a(I356
I257
tp585
a(I357
I257
tp586
a(I358
I257
tp587
a(I359
I257
tp588
a(I338
I245
tp589
a(I338
I246
tp590
a(I339
I245
tp591
a(I340
I245
tp592
a(I338
I248
tp593
a(I356
I258
tp594
a(I357
I258
tp595
a(I358
I258
tp596
a(I359
I258
tp597
a(I337
I245
tp598
a(I337
I246
tp599
a(I341
I245
tp600
a(I337
I248
tp601
a(I357
I259
tp602
a(I358
I259
tp603
a(I359
I259
tp604
a(I336
I245
tp605
a(I336
I246
tp606
a(I342
I245
tp607
a(I357
I260
tp608
a(I358
I260
tp609
a(I359
I260
tp610
a(I335
I245
tp611
a(I335
I246
tp612
a(I343
I245
tp613
a(I357
I261
tp614
a(I358
I261
tp615
a(I359
I261
tp616
a(I334
I245
tp617
a(I334
I246
tp618
a(I344
I245
tp619
a(I356
I262
tp620
a(I357
I262
tp621
a(I358
I262
tp622
a(I359
I262
tp623
a(I333
I245
tp624
a(I333
I246
tp625
a(I345
I245
tp626
a(I356
I263
tp627
a(I357
I263
tp628
a(I358
I263
tp629
a(I359
I263
tp630
a(I346
I245
tp631
a(I356
I264
tp632
a(I357
I264
tp633
a(I358
I264
tp634
a(I359
I264
tp635
a(I347
I245
tp636
a(I357
I265
tp637
a(I358
I265
tp638
a(I359
I265
tp639
a(I348
I245
tp640
a(I357
I266
tp641
a(I358
I266
tp642
a(I359
I266
tp643
a(I349
I245
tp644
a(I357
I267
tp645
a(I358
I267
tp646
a(I359
I267
tp647
a(I357
I268
tp648
a(I358
I268
tp649
a(I359
I268
tp650
a(I357
I269
tp651
a(I358
I269
tp652
a(I359
I269
tp653
a(I357
I270
tp654
a(I358
I270
tp655
a(I359
I270
tp656
a(I357
I271
tp657
a(I358
I271
tp658
a(I359
I271
tp659
a(I357
I272
tp660
a(I358
I272
tp661
a(I359
I272
tp662
a(I357
I273
tp663
asg197
g198
(g202
S'/\xf3\x84D\xac\x83\x11@'
p664
tp665
Rp666
sg208
g198
(g202
S'\xbd\xe9Moz\xd3\x13@'
p667
tp668
Rp669
sg212
I333
sg213
I244
sg214
g198
(g202
S'"H\xbb\xad\t,3@'
p670
tp671
Rp672
sg218
I273
sg219
I29
sa(dp673
g2
I39
sg3
I37
sg4
(lp674
(I20
I255
tp675
a(I19
I256
tp676
a(I21
I256
tp677
a(I18
I256
tp678
a(I18
I257
tp679
a(I19
I257
tp680
a(I20
I257
tp681
a(I21
I257
tp682
a(I22
I257
tp683
a(I17
I256
tp684
a(I17
I257
tp685
a(I17
I258
tp686
a(I18
I258
tp687
a(I19
I258
tp688
a(I16
I256
tp689
a(I16
I257
tp690
a(I16
I258
tp691
a(I16
I259
tp692
a(I17
I259
tp693
a(I18
I259
tp694
a(I19
I259
tp695
a(I15
I258
tp696
a(I16
I260
tp697
a(I17
I260
tp698
a(I18
I260
tp699
a(I19
I260
tp700
a(I17
I261
tp701
a(I18
I261
tp702
a(I19
I261
tp703
a(I17
I262
tp704
a(I18
I262
tp705
a(I19
I262
tp706
a(I17
I263
tp707
a(I18
I263
tp708
a(I19
I263
tp709
a(I17
I264
tp710
a(I18
I264
tp711
a(I19
I264
tp712
a(I17
I265
tp713
a(I18
I265
tp714
a(I19
I265
tp715
a(I17
I266
tp716
a(I18
I266
tp717
a(I19
I266
tp718
a(I17
I267
tp719
a(I18
I267
tp720
a(I19
I267
tp721
a(I17
I268
tp722
a(I18
I268
tp723
a(I19
I268
tp724
a(I17
I269
tp725
a(I18
I269
tp726
a(I19
I269
tp727
a(I16
I270
tp728
a(I18
I270
tp729
a(I19
I270
tp730
a(I15
I269
tp731
a(I16
I269
tp732
a(I17
I270
tp733
a(I17
I271
tp734
a(I19
I271
tp735
a(I14
I268
tp736
a(I19
I272
tp737
a(I20
I272
tp738
a(I13
I267
tp739
a(I13
I268
tp740
a(I13
I269
tp741
a(I14
I267
tp742
a(I21
I272
tp743
a(I12
I266
tp744
a(I12
I267
tp745
a(I12
I268
tp746
a(I13
I266
tp747
a(I14
I266
tp748
a(I22
I271
tp749
a(I22
I272
tp750
a(I22
I273
tp751
a(I12
I265
tp752
a(I23
I270
tp753
a(I23
I272
tp754
a(I23
I274
tp755
a(I12
I264
tp756
a(I24
I269
tp757
a(I24
I271
tp758
a(I22
I275
tp759
a(I23
I275
tp760
a(I11
I263
tp761
a(I24
I268
tp762
a(I25
I268
tp763
a(I25
I269
tp764
a(I22
I276
tp765
a(I23
I276
tp766
a(I10
I262
tp767
a(I10
I263
tp768
a(I10
I264
tp769
a(I11
I262
tp770
a(I12
I262
tp771
a(I23
I267
tp772
a(I24
I267
tp773
a(I25
I267
tp774
a(I26
I267
tp775
a(I26
I268
tp776
a(I22
I277
tp777
a(I23
I277
tp778
a(I9
I262
tp779
a(I9
I263
tp780
a(I9
I264
tp781
a(I9
I265
tp782
a(I10
I265
tp783
a(I22
I266
tp784
a(I23
I266
tp785
a(I24
I266
tp786
a(I25
I266
tp787
a(I26
I266
tp788
a(I27
I268
tp789
a(I22
I278
tp790
a(I23
I278
tp791
a(I8
I262
tp792
a(I8
I263
tp793
a(I8
I264
tp794
a(I8
I265
tp795
a(I8
I266
tp796
a(I9
I266
tp797
a(I10
I266
tp798
a(I22
I265
tp799
a(I23
I265
tp800
a(I24
I265
tp801
a(I25
I265
tp802
a(I26
I265
tp803
a(I28
I269
tp804
a(I22
I279
tp805
a(I23
I279
tp806
a(I7
I262
tp807
a(I7
I263
tp808
a(I7
I264
tp809
a(I7
I265
tp810
a(I7
I266
tp811
a(I7
I267
tp812
a(I8
I267
tp813
a(I9
I267
tp814
a(I10
I267
tp815
a(I23
I264
tp816
a(I24
I264
tp817
a(I25
I264
tp818
a(I26
I264
tp819
a(I27
I264
tp820
a(I27
I270
tp821
a(I29
I268
tp822
a(I22
I280
tp823
a(I23
I280
tp824
a(I6
I262
tp825
a(I6
I263
tp826
a(I6
I264
tp827
a(I6
I265
tp828
a(I6
I266
tp829
a(I6
I267
tp830
a(I23
I263
tp831
a(I24
I263
tp832
a(I25
I263
tp833
a(I26
I263
tp834
a(I27
I263
tp835
a(I30
I267
tp836
a(I5
I262
tp837
a(I5
I263
tp838
a(I5
I264
tp839
a(I5
I265
tp840
a(I5
I266
tp841
a(I5
I267
tp842
a(I22
I262
tp843
a(I25
I262
tp844
a(I26
I262
tp845
a(I27
I262
tp846
a(I31
I266
tp847
a(I4
I262
tp848
a(I4
I263
tp849
a(I4
I264
tp850
a(I4
I265
tp851
a(I4
I266
tp852
a(I4
I267
tp853
a(I21
I263
tp854
a(I22
I261
tp855
a(I22
I263
tp856
a(I24
I261
tp857
a(I25
I261
tp858
a(I26
I261
tp859
a(I32
I265
tp860
a(I3
I262
tp861
a(I3
I263
tp862
a(I3
I264
tp863
a(I3
I265
tp864
a(I3
I266
tp865
a(I3
I267
tp866
a(I21
I260
tp867
a(I22
I260
tp868
a(I24
I260
tp869
a(I25
I260
tp870
a(I33
I264
tp871
a(I2
I262
tp872
a(I2
I263
tp873
a(I2
I264
tp874
a(I2
I265
tp875
a(I2
I266
tp876
a(I2
I267
tp877
a(I21
I259
tp878
a(I22
I259
tp879
a(I24
I259
tp880
a(I25
I259
tp881
a(I34
I263
tp882
a(I23
I258
tp883
a(I24
I258
tp884
a(I25
I258
tp885
a(I35
I262
tp886
a(I36
I261
tp887
a(I37
I260
tp888
a(I38
I259
tp889
a(I39
I258
tp890
asg197
g198
(g202
S'\xdc\xed\xcf\xa5=\x92\x13@'
p891
tp892
Rp893
sg208
g198
(g202
S'r\x1c\xc7q\x1cG\x1e@'
p894
tp895
Rp896
sg212
I2
sg213
I255
sg214
g198
(g202
S'\xa7n\xcd\x0f\x8b\xf07@'
p897
tp898
Rp899
sg218
I280
sg219
I25
sa(dp900
g2
I347
sg3
I19
sg4
(lp901
(I344
I263
tp902
a(I343
I264
tp903
a(I344
I264
tp904
a(I342
I264
tp905
a(I345
I265
tp906
a(I341
I264
tp907
a(I341
I265
tp908
a(I346
I266
tp909
a(I340
I265
tp910
a(I347
I267
tp911
a(I339
I266
tp912
a(I338
I265
tp913
a(I338
I266
tp914
a(I339
I265
tp915
a(I339
I267
tp916
a(I340
I266
tp917
a(I340
I267
tp918
a(I337
I266
tp919
a(I339
I268
tp920
a(I340
I268
tp921
a(I336
I266
tp922
a(I339
I269
tp923
a(I340
I269
tp924
a(I335
I266
tp925
a(I339
I270
tp926
a(I340
I270
tp927
a(I334
I266
tp928
a(I334
I267
tp929
a(I339
I271
tp930
a(I340
I271
tp931
a(I333
I267
tp932
a(I338
I272
tp933
a(I339
I272
tp934
a(I332
I267
tp935
a(I337
I272
tp936
a(I338
I273
tp937
a(I340
I273
tp938
a(I331
I267
tp939
a(I331
I268
tp940
a(I336
I272
tp941
a(I341
I273
tp942
a(I330
I268
tp943
a(I330
I269
tp944
a(I331
I269
tp945
a(I335
I272
tp946
a(I342
I273
tp947
a(I342
I274
tp948
a(I329
I268
tp949
a(I329
I269
tp950
a(I329
I270
tp951
a(I330
I270
tp952
a(I334
I272
tp953
a(I343
I274
tp954
a(I328
I269
tp955
a(I328
I270
tp956
a(I329
I271
tp957
a(I330
I271
tp958
a(I331
I271
tp959
a(I333
I271
tp960
a(I333
I272
tp961
a(I344
I274
tp962
a(I332
I271
tp963
asg197
g198
(g202
S'@\x10q\xb7,8\xf5?'
p964
tp965
Rp966
sg208
g198
(g202
S'k\xad\xb5\xd6Zk\x01@'
p967
tp968
Rp969
sg212
I328
sg213
I263
sg214
g198
(g202
S'>\xdb\t\x9b:$\xfc?'
p970
tp971
Rp972
sg218
I274
sg219
I11
sa(dp973
g2
I345
sg3
I22
sg4
(lp974
(I323
I302
tp975
a(I323
I303
tp976
a(I323
I304
tp977
a(I323
I305
tp978
a(I323
I306
tp979
a(I323
I307
tp980
a(I323
I308
tp981
a(I324
I308
tp982
a(I324
I309
tp983
a(I323
I310
tp984
a(I324
I310
tp985
a(I323
I311
tp986
a(I324
I311
tp987
a(I325
I311
tp988
a(I323
I312
tp989
a(I324
I312
tp990
a(I325
I312
tp991
a(I326
I311
tp992
a(I326
I312
tp993
a(I323
I313
tp994
a(I327
I311
tp995
a(I328
I310
tp996
a(I328
I311
tp997
a(I329
I310
tp998
a(I329
I311
tp999
a(I330
I309
tp1000
a(I330
I310
tp1001
a(I331
I309
tp1002
a(I331
I310
tp1003
a(I332
I309
tp1004
a(I332
I310
tp1005
a(I333
I308
tp1006
a(I333
I309
tp1007
a(I334
I308
tp1008
a(I334
I309
tp1009
a(I335
I308
tp1010
a(I336
I307
tp1011
a(I336
I308
tp1012
a(I337
I307
tp1013
a(I337
I308
tp1014
a(I338
I306
tp1015
a(I338
I307
tp1016
a(I339
I306
tp1017
a(I340
I306
tp1018
a(I341
I305
tp1019
a(I341
I306
tp1020
a(I342
I305
tp1021
a(I342
I306
tp1022
a(I343
I304
tp1023
a(I343
I305
tp1024
a(I344
I304
tp1025
a(I344
I305
tp1026
a(I345
I304
tp1027
asg197
g198
(g202
S'\x91\xa4x\xc6\xeb\xe4\xe8?'
p1028
tp1029
Rp1030
sg208
g198
(g202
S'\xcb>\x87\xd4\x04\xe3\xfd?'
p1031
tp1032
Rp1033
sg212
I323
sg213
I302
sg214
g198
(g202
S'\xdd]JP\xc7]\xe3?'
p1034
tp1035
Rp1036
sg218
I313
sg219
I11
sa(dp1037
g2
I345
sg3
I22
sg4
(lp1038
(I323
I319
tp1039
a(I323
I320
tp1040
a(I323
I321
tp1041
a(I324
I321
tp1042
a(I323
I322
tp1043
a(I324
I322
tp1044
a(I323
I323
tp1045
a(I324
I323
tp1046
a(I323
I324
tp1047
a(I324
I324
tp1048
a(I323
I325
tp1049
a(I324
I325
tp1050
a(I323
I326
tp1051
a(I324
I326
tp1052
a(I323
I327
tp1053
a(I324
I327
tp1054
a(I323
I328
tp1055
a(I324
I328
tp1056
a(I325
I328
tp1057
a(I323
I329
tp1058
a(I324
I329
tp1059
a(I325
I329
tp1060
a(I326
I328
tp1061
a(I326
I329
tp1062
a(I324
I330
tp1063
a(I325
I330
tp1064
a(I327
I328
tp1065
a(I327
I329
tp1066
a(I323
I330
tp1067
a(I328
I328
tp1068
a(I328
I329
tp1069
a(I329
I327
tp1070
a(I329
I328
tp1071
a(I330
I327
tp1072
a(I330
I328
tp1073
a(I331
I327
tp1074
a(I332
I326
tp1075
a(I332
I327
tp1076
a(I333
I326
tp1077
a(I333
I327
tp1078
a(I334
I325
tp1079
a(I334
I326
tp1080
a(I335
I325
tp1081
a(I335
I326
tp1082
a(I336
I325
tp1083
a(I337
I324
tp1084
a(I337
I325
tp1085
a(I338
I324
tp1086
a(I339
I324
tp1087
a(I340
I323
tp1088
a(I340
I324
tp1089
a(I341
I323
tp1090
a(I342
I322
tp1091
a(I342
I323
tp1092
a(I343
I322
tp1093
a(I343
I323
tp1094
a(I344
I321
tp1095
a(I344
I322
tp1096
a(I345
I321
tp1097
asg197
g198
(g202
S'-\xec\xcb\x1fi\xf8\xfb?'
p1098
tp1099
Rp1100
sg208
g198
(g202
S"\r'u_\x1e[\x01@"
p1101
tp1102
Rp1103
sg212
I323
sg213
I319
sg214
g198
(g202
S'"Pn\xc4\xb9r\x08@'
p1104
tp1105
Rp1106
sg218
I330
sg219
I11
sa(dp1107
g2
I534
sg3
I28
sg4
(lp1108
(I506
I486
tp1109
a(I507
I487
tp1110
a(I508
I488
tp1111
a(I509
I489
tp1112
a(I510
I490
tp1113
a(I511
I491
tp1114
a(I512
I492
tp1115
a(I513
I493
tp1116
a(I514
I494
tp1117
a(I514
I495
tp1118
a(I515
I493
tp1119
a(I515
I494
tp1120
a(I515
I495
tp1121
a(I514
I496
tp1122
a(I515
I496
tp1123
a(I515
I492
tp1124
a(I516
I492
tp1125
a(I516
I493
tp1126
a(I516
I494
tp1127
a(I516
I495
tp1128
a(I516
I496
tp1129
a(I514
I497
tp1130
a(I515
I497
tp1131
a(I516
I497
tp1132
a(I515
I491
tp1133
a(I516
I491
tp1134
a(I517
I493
tp1135
a(I517
I494
tp1136
a(I517
I495
tp1137
a(I517
I496
tp1138
a(I517
I497
tp1139
a(I514
I498
tp1140
a(I515
I498
tp1141
a(I516
I498
tp1142
a(I517
I498
tp1143
a(I518
I496
tp1144
a(I518
I497
tp1145
a(I514
I499
tp1146
a(I515
I499
tp1147
a(I516
I499
tp1148
a(I517
I499
tp1149
a(I519
I497
tp1150
a(I519
I498
tp1151
a(I514
I500
tp1152
a(I515
I500
tp1153
a(I516
I500
tp1154
a(I520
I496
tp1155
a(I520
I497
tp1156
a(I520
I498
tp1157
a(I520
I499
tp1158
a(I515
I501
tp1159
a(I515
I502
tp1160
a(I515
I503
tp1161
a(I516
I503
tp1162
a(I514
I504
tp1163
a(I515
I504
tp1164
a(I516
I504
tp1165
a(I517
I504
tp1166
a(I514
I505
tp1167
a(I515
I505
tp1168
a(I516
I505
tp1169
a(I517
I505
tp1170
a(I518
I505
tp1171
a(I514
I506
tp1172
a(I515
I506
tp1173
a(I516
I506
tp1174
a(I517
I506
tp1175
a(I518
I506
tp1176
a(I519
I506
tp1177
a(I514
I507
tp1178
a(I515
I507
tp1179
a(I516
I507
tp1180
a(I517
I507
tp1181
a(I518
I507
tp1182
a(I519
I507
tp1183
a(I520
I506
tp1184
a(I520
I507
tp1185
a(I514
I508
tp1186
a(I515
I508
tp1187
a(I516
I508
tp1188
a(I517
I508
tp1189
a(I518
I508
tp1190
a(I519
I508
tp1191
a(I520
I508
tp1192
a(I514
I509
tp1193
a(I515
I509
tp1194
a(I516
I509
tp1195
a(I517
I509
tp1196
a(I518
I509
tp1197
a(I519
I509
tp1198
a(I520
I509
tp1199
a(I521
I509
tp1200
a(I515
I510
tp1201
a(I516
I510
tp1202
a(I517
I510
tp1203
a(I518
I510
tp1204
a(I519
I510
tp1205
a(I520
I510
tp1206
a(I521
I510
tp1207
a(I522
I509
tp1208
a(I522
I510
tp1209
a(I517
I511
tp1210
a(I519
I511
tp1211
a(I520
I511
tp1212
a(I521
I511
tp1213
a(I522
I511
tp1214
a(I523
I509
tp1215
a(I523
I510
tp1216
a(I523
I511
tp1217
a(I519
I512
tp1218
a(I520
I512
tp1219
a(I521
I512
tp1220
a(I524
I508
tp1221
a(I524
I509
tp1222
a(I524
I510
tp1223
a(I524
I511
tp1224
a(I525
I508
tp1225
a(I525
I509
tp1226
a(I525
I510
tp1227
a(I525
I511
tp1228
a(I526
I507
tp1229
a(I526
I510
tp1230
a(I526
I511
tp1231
a(I527
I506
tp1232
a(I527
I510
tp1233
a(I528
I505
tp1234
a(I528
I510
tp1235
a(I529
I509
tp1236
a(I530
I508
tp1237
a(I530
I509
tp1238
a(I530
I507
tp1239
a(I531
I509
tp1240
a(I531
I510
tp1241
a(I532
I510
tp1242
a(I530
I511
tp1243
a(I532
I511
tp1244
a(I533
I511
tp1245
a(I529
I512
tp1246
a(I534
I511
tp1247
asg197
g198
(g202
S'\xa8]\x10mG\xea\x0b@'
p1248
tp1249
Rp1250
sg208
g198
(g202
S'\xb8T\xb6w\x1d\xd0\x15@'
p1251
tp1252
Rp1253
sg212
I506
sg213
I486
sg214
g198
(g202
S'\xd2\x1aF\xbd\x0bZ(@'
p1254
tp1255
Rp1256
sg218
I512
sg219
I26
sa(dp1257
g2
I329
sg3
I44
sg4
(lp1258
(I285
I612
tp1259
a(I285
I613
tp1260
a(I285
I614
tp1261
a(I285
I615
tp1262
a(I285
I616
tp1263
a(I286
I616
tp1264
a(I285
I617
tp1265
a(I286
I617
tp1266
a(I286
I618
tp1267
a(I286
I619
tp1268
a(I287
I619
tp1269
a(I287
I620
tp1270
a(I288
I618
tp1271
a(I288
I620
tp1272
a(I288
I621
tp1273
a(I289
I617
tp1274
a(I289
I619
tp1275
a(I289
I621
tp1276
a(I289
I622
tp1277
a(I290
I618
tp1278
a(I290
I620
tp1279
a(I290
I622
tp1280
a(I291
I617
tp1281
a(I291
I619
tp1282
a(I291
I621
tp1283
a(I291
I623
tp1284
a(I292
I616
tp1285
a(I292
I618
tp1286
a(I292
I620
tp1287
a(I292
I623
tp1288
a(I293
I615
tp1289
a(I293
I619
tp1290
a(I293
I624
tp1291
a(I292
I614
tp1292
a(I294
I616
tp1293
a(I294
I619
tp1294
a(I294
I620
tp1295
a(I294
I624
tp1296
a(I295
I617
tp1297
a(I295
I623
tp1298
a(I295
I625
tp1299
a(I296
I618
tp1300
a(I296
I622
tp1301
a(I296
I625
tp1302
a(I297
I619
tp1303
a(I297
I626
tp1304
a(I298
I620
tp1305
a(I298
I626
tp1306
a(I299
I619
tp1307
a(I299
I620
tp1308
a(I299
I626
tp1309
a(I299
I618
tp1310
a(I300
I618
tp1311
a(I300
I619
tp1312
a(I300
I620
tp1313
a(I300
I625
tp1314
a(I300
I627
tp1315
a(I299
I617
tp1316
a(I300
I617
tp1317
a(I301
I618
tp1318
a(I301
I619
tp1319
a(I301
I620
tp1320
a(I301
I627
tp1321
a(I302
I620
tp1322
a(I302
I627
tp1323
a(I303
I619
tp1324
a(I303
I628
tp1325
a(I304
I618
tp1326
a(I304
I619
tp1327
a(I304
I620
tp1328
a(I304
I628
tp1329
a(I305
I618
tp1330
a(I305
I619
tp1331
a(I305
I620
tp1332
a(I303
I621
tp1333
a(I304
I621
tp1334
a(I305
I621
tp1335
a(I305
I628
tp1336
a(I306
I619
tp1337
a(I306
I620
tp1338
a(I306
I621
tp1339
a(I302
I621
tp1340
a(I304
I622
tp1341
a(I305
I622
tp1342
a(I306
I622
tp1343
a(I306
I628
tp1344
a(I306
I629
tp1345
a(I307
I619
tp1346
a(I307
I620
tp1347
a(I307
I621
tp1348
a(I307
I622
tp1349
a(I305
I623
tp1350
a(I306
I623
tp1351
a(I307
I623
tp1352
a(I307
I629
tp1353
a(I308
I619
tp1354
a(I308
I620
tp1355
a(I308
I621
tp1356
a(I308
I622
tp1357
a(I308
I623
tp1358
a(I308
I629
tp1359
a(I309
I619
tp1360
a(I309
I620
tp1361
a(I309
I621
tp1362
a(I309
I622
tp1363
a(I309
I623
tp1364
a(I309
I629
tp1365
a(I310
I619
tp1366
a(I310
I620
tp1367
a(I310
I621
tp1368
a(I310
I622
tp1369
a(I310
I623
tp1370
a(I310
I628
tp1371
a(I310
I629
tp1372
a(I311
I620
tp1373
a(I311
I621
tp1374
a(I311
I622
tp1375
a(I311
I623
tp1376
a(I311
I624
tp1377
a(I311
I630
tp1378
a(I312
I620
tp1379
a(I312
I621
tp1380
a(I312
I622
tp1381
a(I312
I623
tp1382
a(I312
I624
tp1383
a(I312
I630
tp1384
a(I313
I620
tp1385
a(I313
I621
tp1386
a(I313
I622
tp1387
a(I313
I623
tp1388
a(I313
I624
tp1389
a(I313
I630
tp1390
a(I314
I620
tp1391
a(I314
I621
tp1392
a(I314
I624
tp1393
a(I314
I630
tp1394
a(I315
I621
tp1395
a(I315
I623
tp1396
a(I315
I631
tp1397
a(I316
I621
tp1398
a(I316
I622
tp1399
a(I314
I631
tp1400
a(I314
I632
tp1401
a(I315
I632
tp1402
a(I316
I631
tp1403
a(I317
I621
tp1404
a(I315
I633
tp1405
a(I317
I631
tp1406
a(I318
I630
tp1407
a(I318
I631
tp1408
a(I318
I629
tp1409
a(I319
I629
tp1410
a(I319
I630
tp1411
a(I319
I631
tp1412
a(I320
I630
tp1413
a(I320
I631
tp1414
a(I321
I632
tp1415
a(I322
I632
tp1416
a(I323
I631
tp1417
a(I323
I632
tp1418
a(I324
I631
tp1419
a(I324
I632
tp1420
a(I325
I633
tp1421
a(I326
I633
tp1422
a(I327
I632
tp1423
a(I327
I633
tp1424
a(I326
I631
tp1425
a(I328
I631
tp1426
a(I328
I633
tp1427
a(I327
I630
tp1428
a(I329
I633
tp1429
asg197
g198
(g202
S'J\xc2\xab`\x92>\x06@'
p1430
tp1431
Rp1432
sg208
g198
(g202
S'\xd2\\Fs\x19\xcd\r@'
p1433
tp1434
Rp1435
sg212
I285
sg213
I612
sg214
g198
(g202
S'\xf5\xaf\x80=\x07\xed\x1e@'
p1436
tp1437
Rp1438
sg218
I633
sg219
I21
sa(dp1439
g2
I177
sg3
I30
sg4
(lp1440
(I153
I689
tp1441
a(I153
I690
tp1442
a(I154
I690
tp1443
a(I154
I691
tp1444
a(I155
I689
tp1445
a(I155
I691
tp1446
a(I155
I692
tp1447
a(I156
I692
tp1448
a(I154
I693
tp1449
a(I156
I693
tp1450
a(I157
I691
tp1451
a(I157
I692
tp1452
a(I157
I693
tp1453
a(I154
I694
tp1454
a(I155
I693
tp1455
a(I157
I694
tp1456
a(I158
I691
tp1457
a(I158
I692
tp1458
a(I158
I693
tp1459
a(I158
I694
tp1460
a(I154
I695
tp1461
a(I156
I695
tp1462
a(I157
I695
tp1463
a(I159
I692
tp1464
a(I159
I694
tp1465
a(I153
I696
tp1466
a(I155
I696
tp1467
a(I157
I696
tp1468
a(I160
I693
tp1469
a(I160
I694
tp1470
a(I152
I695
tp1471
a(I152
I696
tp1472
a(I152
I697
tp1473
a(I154
I697
tp1474
a(I157
I697
tp1475
a(I161
I694
tp1476
a(I151
I695
tp1477
a(I151
I696
tp1478
a(I151
I697
tp1479
a(I151
I698
tp1480
a(I152
I698
tp1481
a(I153
I698
tp1482
a(I154
I698
tp1483
a(I157
I698
tp1484
a(I162
I695
tp1485
a(I150
I696
tp1486
a(I150
I697
tp1487
a(I150
I698
tp1488
a(I152
I699
tp1489
a(I153
I699
tp1490
a(I154
I699
tp1491
a(I155
I699
tp1492
a(I156
I699
tp1493
a(I157
I699
tp1494
a(I161
I696
tp1495
a(I163
I696
tp1496
a(I149
I695
tp1497
a(I151
I700
tp1498
a(I153
I700
tp1499
a(I154
I700
tp1500
a(I155
I700
tp1501
a(I156
I700
tp1502
a(I157
I700
tp1503
a(I158
I700
tp1504
a(I164
I696
tp1505
a(I164
I697
tp1506
a(I148
I695
tp1507
a(I148
I696
tp1508
a(I150
I701
tp1509
a(I153
I701
tp1510
a(I154
I701
tp1511
a(I155
I701
tp1512
a(I156
I701
tp1513
a(I157
I701
tp1514
a(I158
I701
tp1515
a(I159
I701
tp1516
a(I165
I697
tp1517
a(I163
I698
tp1518
a(I147
I696
tp1519
a(I155
I702
tp1520
a(I156
I702
tp1521
a(I157
I702
tp1522
a(I166
I698
tp1523
a(I155
I703
tp1524
a(I156
I703
tp1525
a(I157
I703
tp1526
a(I158
I703
tp1527
a(I165
I699
tp1528
a(I166
I699
tp1529
a(I167
I699
tp1530
a(I154
I704
tp1531
a(I164
I700
tp1532
a(I165
I700
tp1533
a(I166
I700
tp1534
a(I167
I700
tp1535
a(I153
I703
tp1536
a(I153
I705
tp1537
a(I155
I705
tp1538
a(I164
I701
tp1539
a(I164
I699
tp1540
a(I165
I701
tp1541
a(I166
I701
tp1542
a(I167
I701
tp1543
a(I152
I705
tp1544
a(I152
I706
tp1545
a(I153
I706
tp1546
a(I154
I706
tp1547
a(I155
I706
tp1548
a(I156
I705
tp1549
a(I163
I702
tp1550
a(I163
I699
tp1551
a(I166
I702
tp1552
a(I167
I702
tp1553
a(I168
I702
tp1554
a(I151
I705
tp1555
a(I151
I706
tp1556
a(I151
I707
tp1557
a(I152
I707
tp1558
a(I153
I707
tp1559
a(I154
I707
tp1560
a(I156
I707
tp1561
a(I157
I705
tp1562
a(I163
I703
tp1563
a(I162
I698
tp1564
a(I166
I703
tp1565
a(I167
I703
tp1566
a(I168
I703
tp1567
a(I169
I703
tp1568
a(I150
I705
tp1569
a(I150
I706
tp1570
a(I150
I707
tp1571
a(I155
I708
tp1572
a(I156
I708
tp1573
a(I157
I707
tp1574
a(I157
I708
tp1575
a(I163
I704
tp1576
a(I164
I704
tp1577
a(I166
I704
tp1578
a(I167
I704
tp1579
a(I168
I704
tp1580
a(I169
I704
tp1581
a(I170
I704
tp1582
a(I154
I709
tp1583
a(I155
I709
tp1584
a(I156
I709
tp1585
a(I157
I709
tp1586
a(I158
I707
tp1587
a(I158
I708
tp1588
a(I158
I709
tp1589
a(I164
I705
tp1590
a(I165
I705
tp1591
a(I166
I705
tp1592
a(I167
I705
tp1593
a(I169
I705
tp1594
a(I170
I705
tp1595
a(I171
I705
tp1596
a(I153
I709
tp1597
a(I153
I710
tp1598
a(I154
I710
tp1599
a(I155
I710
tp1600
a(I159
I707
tp1601
a(I159
I708
tp1602
a(I159
I709
tp1603
a(I159
I710
tp1604
a(I165
I706
tp1605
a(I166
I706
tp1606
a(I167
I706
tp1607
a(I170
I706
tp1608
a(I171
I706
tp1609
a(I172
I706
tp1610
a(I152
I709
tp1611
a(I152
I710
tp1612
a(I153
I711
tp1613
a(I160
I707
tp1614
a(I160
I708
tp1615
a(I160
I709
tp1616
a(I166
I707
tp1617
a(I167
I707
tp1618
a(I171
I707
tp1619
a(I172
I707
tp1620
a(I173
I707
tp1621
a(I151
I709
tp1622
a(I151
I710
tp1623
a(I151
I711
tp1624
a(I161
I707
tp1625
a(I161
I708
tp1626
a(I161
I709
tp1627
a(I172
I708
tp1628
a(I173
I708
tp1629
a(I174
I708
tp1630
a(I150
I709
tp1631
a(I162
I706
tp1632
a(I162
I707
tp1633
a(I162
I708
tp1634
a(I162
I709
tp1635
a(I173
I709
tp1636
a(I174
I709
tp1637
a(I175
I709
tp1638
a(I149
I710
tp1639
a(I163
I708
tp1640
a(I163
I709
tp1641
a(I163
I710
tp1642
a(I174
I710
tp1643
a(I175
I710
tp1644
a(I176
I710
tp1645
a(I149
I711
tp1646
a(I164
I709
tp1647
a(I164
I710
tp1648
a(I175
I711
tp1649
a(I176
I711
tp1650
a(I177
I711
tp1651
a(I174
I712
tp1652
a(I175
I712
tp1653
a(I176
I712
tp1654
a(I177
I712
tp1655
a(I173
I712
tp1656
a(I173
I713
tp1657
a(I174
I713
tp1658
a(I175
I713
tp1659
a(I172
I712
tp1660
a(I172
I713
tp1661
a(I172
I714
tp1662
a(I173
I714
tp1663
a(I174
I714
tp1664
a(I175
I714
tp1665
a(I176
I714
tp1666
a(I172
I715
tp1667
a(I173
I715
tp1668
a(I174
I715
tp1669
a(I175
I715
tp1670
a(I176
I715
tp1671
a(I177
I714
tp1672
a(I177
I715
tp1673
a(I172
I716
tp1674
a(I173
I716
tp1675
a(I174
I716
tp1676
a(I175
I716
tp1677
a(I176
I716
tp1678
a(I177
I716
tp1679
asg197
g198
(g202
S'\xd7\x19\x95\x03oM\x10@'
p1680
tp1681
Rp1682
sg208
g198
(g202
S'\xfbJ\xe6gQ\x8c\x17@'
p1683
tp1684
Rp1685
sg212
I147
sg213
I689
sg214
g198
(g202
S'|\xf0\xae\xc6T\x9c0@'
p1686
tp1687
Rp1688
sg218
I716
sg219
I27
sa(dp1689
g2
I276
sg3
I25
sg4
(lp1690
(I253
I696
tp1691
a(I252
I697
tp1692
a(I253
I697
tp1693
a(I251
I698
tp1694
a(I254
I698
tp1695
a(I251
I699
tp1696
a(I253
I699
tp1697
a(I254
I699
tp1698
a(I255
I698
tp1699
a(I255
I699
tp1700
a(I256
I698
tp1701
a(I256
I699
tp1702
a(I257
I699
tp1703
a(I258
I699
tp1704
a(I258
I700
tp1705
a(I257
I700
tp1706
a(I259
I699
tp1707
a(I259
I700
tp1708
a(I257
I701
tp1709
a(I256
I701
tp1710
a(I260
I699
tp1711
a(I260
I700
tp1712
a(I257
I702
tp1713
a(I255
I701
tp1714
a(I257
I703
tp1715
a(I254
I701
tp1716
a(I254
I702
tp1717
a(I253
I701
tp1718
a(I253
I702
tp1719
a(I255
I703
tp1720
a(I252
I701
tp1721
a(I252
I702
tp1722
a(I256
I703
tp1723
a(I257
I704
tp1724
a(I258
I704
tp1725
a(I259
I704
tp1726
a(I259
I705
tp1727
a(I260
I704
tp1728
a(I260
I705
tp1729
a(I260
I706
tp1730
a(I261
I705
tp1731
a(I261
I706
tp1732
a(I261
I707
tp1733
a(I262
I705
tp1734
a(I262
I706
tp1735
a(I262
I707
tp1736
a(I262
I708
tp1737
a(I263
I705
tp1738
a(I263
I706
tp1739
a(I263
I707
tp1740
a(I263
I708
tp1741
a(I263
I709
tp1742
a(I264
I706
tp1743
a(I264
I707
tp1744
a(I264
I709
tp1745
a(I265
I706
tp1746
a(I265
I708
tp1747
a(I265
I709
tp1748
a(I265
I710
tp1749
a(I266
I708
tp1750
a(I266
I709
tp1751
a(I266
I710
tp1752
a(I266
I711
tp1753
a(I267
I709
tp1754
a(I267
I710
tp1755
a(I267
I711
tp1756
a(I267
I712
tp1757
a(I268
I709
tp1758
a(I268
I710
tp1759
a(I268
I711
tp1760
a(I268
I712
tp1761
a(I269
I710
tp1762
a(I269
I711
tp1763
a(I269
I712
tp1764
a(I269
I713
tp1765
a(I270
I710
tp1766
a(I270
I711
tp1767
a(I270
I712
tp1768
a(I270
I713
tp1769
a(I270
I714
tp1770
a(I271
I710
tp1771
a(I271
I711
tp1772
a(I271
I712
tp1773
a(I271
I713
tp1774
a(I271
I714
tp1775
a(I272
I709
tp1776
a(I272
I710
tp1777
a(I272
I711
tp1778
a(I272
I712
tp1779
a(I272
I714
tp1780
a(I272
I715
tp1781
a(I271
I708
tp1782
a(I272
I708
tp1783
a(I273
I708
tp1784
a(I273
I709
tp1785
a(I273
I710
tp1786
a(I273
I711
tp1787
a(I273
I712
tp1788
a(I273
I713
tp1789
a(I273
I714
tp1790
a(I273
I715
tp1791
a(I270
I707
tp1792
a(I270
I708
tp1793
a(I273
I707
tp1794
a(I274
I707
tp1795
a(I274
I714
tp1796
a(I274
I715
tp1797
a(I273
I706
tp1798
a(I275
I706
tp1799
a(I275
I714
tp1800
a(I275
I715
tp1801
a(I275
I716
tp1802
a(I272
I705
tp1803
a(I273
I705
tp1804
a(I276
I716
tp1805
a(I271
I704
tp1806
a(I272
I704
tp1807
a(I273
I704
tp1808
a(I270
I703
tp1809
a(I270
I704
tp1810
a(I271
I703
tp1811
a(I272
I703
tp1812
a(I273
I703
tp1813
a(I269
I702
tp1814
a(I269
I703
tp1815
a(I269
I704
tp1816
a(I268
I703
tp1817
a(I268
I704
tp1818
a(I267
I703
tp1819
a(I267
I704
tp1820
a(I266
I703
tp1821
a(I266
I704
tp1822
a(I265
I703
tp1823
a(I265
I704
tp1824
a(I264
I703
tp1825
a(I263
I703
tp1826
a(I262
I703
tp1827
a(I261
I703
tp1828
asg197
g198
(g202
S'?\xf9\x8f\xeb\x1eZ\x0c@'
p1829
tp1830
Rp1831
sg208
g198
(g202
S'\xe6\xda\x81\xb9v`\x12@'
p1832
tp1833
Rp1834
sg212
I251
sg213
I696
sg214
g198
(g202
S'|\xdeF\xea\xb3\x1e)@'
p1835
tp1836
Rp1837
sg218
I716
sg219
I20
sa(dp1838
g2
I301
sg3
I16
sg4
(lp1839
(I295
I748
tp1840
a(I294
I749
tp1841
a(I295
I749
tp1842
a(I296
I748
tp1843
a(I297
I749
tp1844
a(I297
I748
tp1845
a(I297
I750
tp1846
a(I298
I748
tp1847
a(I298
I749
tp1848
a(I298
I750
tp1849
a(I296
I751
tp1850
a(I297
I751
tp1851
a(I298
I751
tp1852
a(I299
I749
tp1853
a(I299
I750
tp1854
a(I299
I751
tp1855
a(I295
I751
tp1856
a(I295
I752
tp1857
a(I296
I752
tp1858
a(I297
I752
tp1859
a(I298
I752
tp1860
a(I299
I752
tp1861
a(I300
I750
tp1862
a(I300
I751
tp1863
a(I300
I752
tp1864
a(I295
I753
tp1865
a(I296
I753
tp1866
a(I297
I753
tp1867
a(I298
I753
tp1868
a(I299
I753
tp1869
a(I300
I753
tp1870
a(I301
I752
tp1871
a(I294
I754
tp1872
a(I301
I753
tp1873
a(I293
I755
tp1874
a(I292
I756
tp1875
a(I291
I757
tp1876
a(I290
I758
tp1877
a(I289
I759
tp1878
a(I288
I760
tp1879
a(I287
I761
tp1880
a(I286
I762
tp1881
a(I285
I763
tp1882
asg197
g198
(g202
S'\xb3\xe4\xfc\xfd\xfd\xbe\x14@'
p1883
tp1884
Rp1885
sg208
g198
(g202
S'w\xc4\x1dqG\xdc\x19@'
p1886
tp1887
Rp1888
sg212
I285
sg213
I748
sg214
g198
(g202
S'\x16r\x08\xdbb\xe6:@'
p1889
tp1890
Rp1891
sg218
I763
sg219
I15
sa(dp1892
g2
I454
sg3
I80
sg4
(lp1893
(I411
I764
tp1894
a(I410
I765
tp1895
a(I409
I766
tp1896
a(I408
I767
tp1897
a(I409
I767
tp1898
a(I410
I767
tp1899
a(I411
I767
tp1900
a(I412
I767
tp1901
a(I413
I767
tp1902
a(I414
I767
tp1903
a(I415
I767
tp1904
a(I416
I766
tp1905
a(I416
I767
tp1906
a(I415
I765
tp1907
a(I417
I767
tp1908
a(I418
I768
tp1909
a(I417
I769
tp1910
a(I418
I769
tp1911
a(I419
I768
tp1912
a(I416
I769
tp1913
a(I419
I770
tp1914
a(I420
I768
tp1915
a(I415
I769
tp1916
a(I420
I771
tp1917
a(I414
I769
tp1918
a(I421
I772
tp1919
a(I413
I769
tp1920
a(I422
I771
tp1921
a(I422
I773
tp1922
a(I412
I770
tp1923
a(I423
I770
tp1924
a(I421
I774
tp1925
a(I422
I774
tp1926
a(I423
I773
tp1927
a(I423
I774
tp1928
a(I411
I771
tp1929
a(I424
I770
tp1930
a(I410
I770
tp1931
a(I410
I771
tp1932
a(I410
I772
tp1933
a(I412
I771
tp1934
a(I412
I772
tp1935
a(I425
I770
tp1936
a(I409
I771
tp1937
a(I411
I773
tp1938
a(I426
I770
tp1939
a(I408
I770
tp1940
a(I408
I771
tp1941
a(I412
I774
tp1942
a(I427
I770
tp1943
a(I427
I771
tp1944
a(I407
I769
tp1945
a(I407
I771
tp1946
a(I408
I769
tp1947
a(I413
I775
tp1948
a(I428
I770
tp1949
a(I428
I771
tp1950
a(I406
I769
tp1951
a(I406
I771
tp1952
a(I406
I772
tp1953
a(I413
I776
tp1954
a(I414
I775
tp1955
a(I414
I776
tp1956
a(I405
I769
tp1957
a(I405
I771
tp1958
a(I407
I773
tp1959
a(I412
I777
tp1960
a(I413
I777
tp1961
a(I414
I777
tp1962
a(I415
I775
tp1963
a(I415
I776
tp1964
a(I404
I769
tp1965
a(I404
I770
tp1966
a(I404
I771
tp1967
a(I404
I772
tp1968
a(I408
I774
tp1969
a(I411
I777
tp1970
a(I411
I778
tp1971
a(I412
I778
tp1972
a(I415
I774
tp1973
a(I416
I774
tp1974
a(I416
I775
tp1975
a(I403
I771
tp1976
a(I403
I773
tp1977
a(I404
I773
tp1978
a(I409
I775
tp1979
a(I410
I776
tp1980
a(I410
I777
tp1981
a(I410
I779
tp1982
a(I413
I779
tp1983
a(I415
I773
tp1984
a(I416
I773
tp1985
a(I404
I774
tp1986
a(I409
I777
tp1987
a(I409
I779
tp1988
a(I409
I780
tp1989
a(I410
I780
tp1990
a(I414
I780
tp1991
a(I404
I775
tp1992
a(I405
I775
tp1993
a(I408
I777
tp1994
a(I408
I778
tp1995
a(I408
I781
tp1996
a(I414
I781
tp1997
a(I415
I781
tp1998
a(I406
I776
tp1999
a(I407
I777
tp2000
a(I407
I781
tp2001
a(I407
I782
tp2002
a(I408
I782
tp2003
a(I409
I782
tp2004
a(I413
I782
tp2005
a(I416
I782
tp2006
a(I405
I777
tp2007
a(I406
I777
tp2008
a(I406
I780
tp2009
a(I406
I781
tp2010
a(I406
I782
tp2011
a(I406
I783
tp2012
a(I407
I783
tp2013
a(I408
I783
tp2014
a(I409
I783
tp2015
a(I410
I782
tp2016
a(I410
I783
tp2017
a(I412
I783
tp2018
a(I417
I783
tp2019
a(I404
I777
tp2020
a(I405
I779
tp2021
a(I405
I780
tp2022
a(I405
I781
tp2023
a(I405
I782
tp2024
a(I405
I783
tp2025
a(I405
I784
tp2026
a(I406
I784
tp2027
a(I407
I784
tp2028
a(I408
I784
tp2029
a(I409
I784
tp2030
a(I410
I784
tp2031
a(I411
I783
tp2032
a(I411
I784
tp2033
a(I412
I784
tp2034
a(I413
I784
tp2035
a(I416
I784
tp2036
a(I404
I779
tp2037
a(I404
I780
tp2038
a(I404
I781
tp2039
a(I404
I782
tp2040
a(I404
I783
tp2041
a(I404
I784
tp2042
a(I404
I785
tp2043
a(I405
I785
tp2044
a(I406
I785
tp2045
a(I407
I785
tp2046
a(I408
I785
tp2047
a(I409
I785
tp2048
a(I410
I785
tp2049
a(I411
I785
tp2050
a(I412
I785
tp2051
a(I413
I785
tp2052
a(I414
I784
tp2053
a(I414
I785
tp2054
a(I415
I784
tp2055
a(I415
I785
tp2056
a(I416
I785
tp2057
a(I417
I785
tp2058
a(I403
I780
tp2059
a(I403
I781
tp2060
a(I403
I782
tp2061
a(I403
I783
tp2062
a(I403
I784
tp2063
a(I403
I785
tp2064
a(I403
I786
tp2065
a(I404
I786
tp2066
a(I405
I786
tp2067
a(I406
I786
tp2068
a(I407
I786
tp2069
a(I408
I786
tp2070
a(I409
I786
tp2071
a(I410
I786
tp2072
a(I411
I786
tp2073
a(I412
I786
tp2074
a(I413
I786
tp2075
a(I414
I786
tp2076
a(I415
I786
tp2077
a(I416
I786
tp2078
a(I417
I786
tp2079
a(I418
I785
tp2080
a(I418
I786
tp2081
a(I402
I780
tp2082
a(I402
I781
tp2083
a(I402
I782
tp2084
a(I402
I783
tp2085
a(I402
I784
tp2086
a(I402
I785
tp2087
a(I402
I786
tp2088
a(I402
I787
tp2089
a(I403
I787
tp2090
a(I404
I787
tp2091
a(I405
I787
tp2092
a(I406
I787
tp2093
a(I407
I787
tp2094
a(I408
I787
tp2095
a(I409
I787
tp2096
a(I410
I787
tp2097
a(I411
I787
tp2098
a(I412
I787
tp2099
a(I413
I787
tp2100
a(I414
I787
tp2101
a(I415
I787
tp2102
a(I416
I787
tp2103
a(I417
I787
tp2104
a(I418
I787
tp2105
a(I419
I785
tp2106
a(I419
I786
tp2107
a(I419
I787
tp2108
a(I401
I780
tp2109
a(I401
I781
tp2110
a(I401
I782
tp2111
a(I401
I783
tp2112
a(I401
I784
tp2113
a(I401
I785
tp2114
a(I401
I786
tp2115
a(I401
I787
tp2116
a(I401
I788
tp2117
a(I402
I788
tp2118
a(I403
I788
tp2119
a(I404
I788
tp2120
a(I405
I788
tp2121
a(I406
I788
tp2122
a(I407
I788
tp2123
a(I408
I788
tp2124
a(I409
I788
tp2125
a(I410
I788
tp2126
a(I411
I788
tp2127
a(I412
I788
tp2128
a(I413
I788
tp2129
a(I414
I788
tp2130
a(I415
I788
tp2131
a(I416
I788
tp2132
a(I417
I788
tp2133
a(I418
I788
tp2134
a(I419
I788
tp2135
a(I420
I786
tp2136
a(I420
I787
tp2137
a(I420
I788
tp2138
a(I400
I780
tp2139
a(I400
I781
tp2140
a(I400
I782
tp2141
a(I400
I783
tp2142
a(I400
I784
tp2143
a(I400
I785
tp2144
a(I400
I786
tp2145
a(I400
I787
tp2146
a(I400
I788
tp2147
a(I400
I789
tp2148
a(I401
I789
tp2149
a(I402
I789
tp2150
a(I403
I789
tp2151
a(I404
I789
tp2152
a(I405
I789
tp2153
a(I406
I789
tp2154
a(I407
I789
tp2155
a(I408
I789
tp2156
a(I409
I789
tp2157
a(I410
I789
tp2158
a(I411
I789
tp2159
a(I412
I789
tp2160
a(I413
I789
tp2161
a(I414
I789
tp2162
a(I415
I789
tp2163
a(I416
I789
tp2164
a(I417
I789
tp2165
a(I418
I789
tp2166
a(I419
I789
tp2167
a(I420
I789
tp2168
a(I421
I786
tp2169
a(I421
I787
tp2170
a(I421
I788
tp2171
a(I421
I789
tp2172
a(I399
I780
tp2173
a(I399
I781
tp2174
a(I399
I782
tp2175
a(I399
I783
tp2176
a(I399
I784
tp2177
a(I399
I785
tp2178
a(I399
I786
tp2179
a(I399
I787
tp2180
a(I399
I788
tp2181
a(I399
I789
tp2182
a(I399
I790
tp2183
a(I400
I790
tp2184
a(I401
I790
tp2185
a(I402
I790
tp2186
a(I403
I790
tp2187
a(I404
I790
tp2188
a(I405
I790
tp2189
a(I406
I790
tp2190
a(I407
I790
tp2191
a(I408
I790
tp2192
a(I409
I790
tp2193
a(I410
I790
tp2194
a(I411
I790
tp2195
a(I412
I790
tp2196
a(I413
I790
tp2197
a(I414
I790
tp2198
a(I415
I790
tp2199
a(I416
I790
tp2200
a(I417
I790
tp2201
a(I418
I790
tp2202
a(I419
I790
tp2203
a(I420
I790
tp2204
a(I421
I790
tp2205
a(I422
I786
tp2206
a(I422
I787
tp2207
a(I422
I788
tp2208
a(I422
I789
tp2209
a(I422
I790
tp2210
a(I398
I780
tp2211
a(I398
I781
tp2212
a(I398
I782
tp2213
a(I398
I783
tp2214
a(I398
I784
tp2215
a(I398
I785
tp2216
a(I398
I786
tp2217
a(I398
I787
tp2218
a(I398
I788
tp2219
a(I398
I789
tp2220
a(I398
I790
tp2221
a(I398
I791
tp2222
a(I399
I791
tp2223
a(I400
I791
tp2224
a(I401
I791
tp2225
a(I402
I791
tp2226
a(I403
I791
tp2227
a(I404
I791
tp2228
a(I405
I791
tp2229
a(I406
I791
tp2230
a(I407
I791
tp2231
a(I408
I791
tp2232
a(I409
I791
tp2233
a(I410
I791
tp2234
a(I411
I791
tp2235
a(I412
I791
tp2236
a(I413
I791
tp2237
a(I414
I791
tp2238
a(I415
I791
tp2239
a(I416
I791
tp2240
a(I417
I791
tp2241
a(I418
I791
tp2242
a(I419
I791
tp2243
a(I420
I791
tp2244
a(I421
I791
tp2245
a(I422
I791
tp2246
a(I423
I787
tp2247
a(I423
I788
tp2248
a(I423
I789
tp2249
a(I423
I790
tp2250
a(I423
I791
tp2251
a(I397
I780
tp2252
a(I397
I781
tp2253
a(I397
I782
tp2254
a(I397
I783
tp2255
a(I397
I784
tp2256
a(I397
I785
tp2257
a(I397
I786
tp2258
a(I397
I787
tp2259
a(I397
I788
tp2260
a(I397
I789
tp2261
a(I397
I790
tp2262
a(I397
I791
tp2263
a(I397
I792
tp2264
a(I398
I792
tp2265
a(I399
I792
tp2266
a(I400
I792
tp2267
a(I401
I792
tp2268
a(I402
I792
tp2269
a(I403
I792
tp2270
a(I404
I792
tp2271
a(I405
I792
tp2272
a(I406
I792
tp2273
a(I407
I792
tp2274
a(I408
I792
tp2275
a(I409
I792
tp2276
a(I410
I792
tp2277
a(I411
I792
tp2278
a(I412
I792
tp2279
a(I413
I792
tp2280
a(I414
I792
tp2281
a(I415
I792
tp2282
a(I416
I792
tp2283
a(I417
I792
tp2284
a(I418
I792
tp2285
a(I419
I792
tp2286
a(I420
I792
tp2287
a(I421
I792
tp2288
a(I422
I792
tp2289
a(I423
I792
tp2290
a(I424
I787
tp2291
a(I424
I788
tp2292
a(I424
I789
tp2293
a(I424
I790
tp2294
a(I424
I791
tp2295
a(I424
I792
tp2296
a(I396
I779
tp2297
a(I396
I780
tp2298
a(I396
I781
tp2299
a(I396
I782
tp2300
a(I396
I783
tp2301
a(I396
I784
tp2302
a(I396
I785
tp2303
a(I396
I786
tp2304
a(I396
I787
tp2305
a(I396
I788
tp2306
a(I396
I789
tp2307
a(I396
I790
tp2308
a(I396
I791
tp2309
a(I396
I792
tp2310
a(I396
I793
tp2311
a(I397
I793
tp2312
a(I398
I793
tp2313
a(I399
I793
tp2314
a(I400
I793
tp2315
a(I401
I793
tp2316
a(I402
I793
tp2317
a(I403
I793
tp2318
a(I404
I793
tp2319
a(I405
I793
tp2320
a(I406
I793
tp2321
a(I407
I793
tp2322
a(I408
I793
tp2323
a(I409
I793
tp2324
a(I410
I793
tp2325
a(I411
I793
tp2326
a(I412
I793
tp2327
a(I413
I793
tp2328
a(I414
I793
tp2329
a(I415
I793
tp2330
a(I416
I793
tp2331
a(I417
I793
tp2332
a(I418
I793
tp2333
a(I419
I793
tp2334
a(I420
I793
tp2335
a(I421
I793
tp2336
a(I422
I793
tp2337
a(I423
I793
tp2338
a(I424
I793
tp2339
a(I425
I787
tp2340
a(I425
I788
tp2341
a(I425
I789
tp2342
a(I425
I790
tp2343
a(I425
I791
tp2344
a(I425
I792
tp2345
a(I425
I793
tp2346
a(I395
I780
tp2347
a(I395
I781
tp2348
a(I395
I782
tp2349
a(I395
I783
tp2350
a(I395
I784
tp2351
a(I395
I785
tp2352
a(I395
I786
tp2353
a(I395
I787
tp2354
a(I395
I788
tp2355
a(I395
I789
tp2356
a(I395
I790
tp2357
a(I395
I791
tp2358
a(I395
I792
tp2359
a(I395
I793
tp2360
a(I399
I794
tp2361
a(I400
I794
tp2362
a(I401
I794
tp2363
a(I402
I794
tp2364
a(I403
I794
tp2365
a(I404
I794
tp2366
a(I405
I794
tp2367
a(I406
I794
tp2368
a(I407
I794
tp2369
a(I408
I794
tp2370
a(I409
I794
tp2371
a(I410
I794
tp2372
a(I411
I794
tp2373
a(I412
I794
tp2374
a(I413
I794
tp2375
a(I414
I794
tp2376
a(I415
I794
tp2377
a(I416
I794
tp2378
a(I417
I794
tp2379
a(I418
I794
tp2380
a(I419
I794
tp2381
a(I420
I794
tp2382
a(I421
I794
tp2383
a(I422
I794
tp2384
a(I423
I794
tp2385
a(I424
I794
tp2386
a(I425
I794
tp2387
a(I426
I787
tp2388
a(I426
I788
tp2389
a(I426
I789
tp2390
a(I426
I790
tp2391
a(I426
I791
tp2392
a(I426
I792
tp2393
a(I426
I793
tp2394
a(I426
I794
tp2395
a(I394
I781
tp2396
a(I394
I782
tp2397
a(I394
I783
tp2398
a(I394
I784
tp2399
a(I394
I785
tp2400
a(I394
I786
tp2401
a(I394
I787
tp2402
a(I394
I788
tp2403
a(I394
I789
tp2404
a(I394
I790
tp2405
a(I394
I791
tp2406
a(I394
I792
tp2407
a(I394
I793
tp2408
a(I401
I795
tp2409
a(I402
I795
tp2410
a(I403
I795
tp2411
a(I404
I795
tp2412
a(I405
I795
tp2413
a(I406
I795
tp2414
a(I407
I795
tp2415
a(I408
I795
tp2416
a(I409
I795
tp2417
a(I410
I795
tp2418
a(I411
I795
tp2419
a(I412
I795
tp2420
a(I413
I795
tp2421
a(I414
I795
tp2422
a(I415
I795
tp2423
a(I416
I795
tp2424
a(I417
I795
tp2425
a(I418
I795
tp2426
a(I419
I795
tp2427
a(I420
I795
tp2428
a(I421
I795
tp2429
a(I422
I795
tp2430
a(I423
I795
tp2431
a(I424
I795
tp2432
a(I425
I795
tp2433
a(I426
I795
tp2434
a(I427
I787
tp2435
a(I427
I788
tp2436
a(I427
I789
tp2437
a(I427
I790
tp2438
a(I427
I791
tp2439
a(I427
I792
tp2440
a(I427
I793
tp2441
a(I427
I794
tp2442
a(I427
I795
tp2443
a(I393
I781
tp2444
a(I393
I782
tp2445
a(I393
I783
tp2446
a(I393
I784
tp2447
a(I393
I785
tp2448
a(I393
I786
tp2449
a(I393
I787
tp2450
a(I393
I788
tp2451
a(I393
I789
tp2452
a(I393
I790
tp2453
a(I393
I791
tp2454
a(I393
I792
tp2455
a(I393
I793
tp2456
a(I405
I796
tp2457
a(I406
I796
tp2458
a(I407
I796
tp2459
a(I408
I796
tp2460
a(I409
I796
tp2461
a(I410
I796
tp2462
a(I411
I796
tp2463
a(I412
I796
tp2464
a(I413
I796
tp2465
a(I414
I796
tp2466
a(I415
I796
tp2467
a(I416
I796
tp2468
a(I428
I787
tp2469
a(I428
I788
tp2470
a(I428
I789
tp2471
a(I428
I790
tp2472
a(I428
I791
tp2473
a(I428
I792
tp2474
a(I428
I793
tp2475
a(I428
I794
tp2476
a(I428
I795
tp2477
a(I392
I781
tp2478
a(I392
I782
tp2479
a(I392
I783
tp2480
a(I392
I784
tp2481
a(I392
I785
tp2482
a(I392
I786
tp2483
a(I392
I787
tp2484
a(I392
I788
tp2485
a(I392
I789
tp2486
a(I392
I790
tp2487
a(I392
I791
tp2488
a(I392
I792
tp2489
a(I392
I793
tp2490
a(I392
I794
tp2491
a(I429
I788
tp2492
a(I429
I789
tp2493
a(I429
I790
tp2494
a(I429
I791
tp2495
a(I429
I792
tp2496
a(I429
I793
tp2497
a(I429
I794
tp2498
a(I391
I781
tp2499
a(I391
I782
tp2500
a(I391
I783
tp2501
a(I391
I784
tp2502
a(I391
I785
tp2503
a(I391
I786
tp2504
a(I391
I787
tp2505
a(I391
I788
tp2506
a(I391
I789
tp2507
a(I391
I790
tp2508
a(I391
I791
tp2509
a(I391
I792
tp2510
a(I391
I793
tp2511
a(I391
I794
tp2512
a(I391
I795
tp2513
a(I430
I788
tp2514
a(I430
I789
tp2515
a(I430
I790
tp2516
a(I430
I791
tp2517
a(I430
I792
tp2518
a(I430
I793
tp2519
a(I430
I794
tp2520
a(I390
I781
tp2521
a(I390
I782
tp2522
a(I390
I783
tp2523
a(I390
I784
tp2524
a(I390
I785
tp2525
a(I390
I786
tp2526
a(I390
I787
tp2527
a(I390
I788
tp2528
a(I390
I789
tp2529
a(I390
I790
tp2530
a(I390
I791
tp2531
a(I390
I792
tp2532
a(I390
I793
tp2533
a(I390
I794
tp2534
a(I390
I795
tp2535
a(I390
I796
tp2536
a(I391
I796
tp2537
a(I431
I788
tp2538
a(I431
I789
tp2539
a(I431
I790
tp2540
a(I431
I791
tp2541
a(I431
I792
tp2542
a(I431
I793
tp2543
a(I431
I794
tp2544
a(I389
I781
tp2545
a(I389
I782
tp2546
a(I389
I783
tp2547
a(I389
I784
tp2548
a(I389
I785
tp2549
a(I389
I786
tp2550
a(I389
I787
tp2551
a(I389
I788
tp2552
a(I389
I789
tp2553
a(I389
I790
tp2554
a(I389
I791
tp2555
a(I389
I792
tp2556
a(I389
I793
tp2557
a(I389
I794
tp2558
a(I389
I795
tp2559
a(I389
I796
tp2560
a(I389
I797
tp2561
a(I390
I797
tp2562
a(I391
I797
tp2563
a(I432
I788
tp2564
a(I432
I789
tp2565
a(I432
I790
tp2566
a(I432
I791
tp2567
a(I432
I792
tp2568
a(I432
I793
tp2569
a(I432
I794
tp2570
a(I388
I781
tp2571
a(I388
I782
tp2572
a(I388
I783
tp2573
a(I388
I784
tp2574
a(I388
I785
tp2575
a(I388
I786
tp2576
a(I388
I787
tp2577
a(I388
I788
tp2578
a(I388
I789
tp2579
a(I388
I790
tp2580
a(I388
I791
tp2581
a(I388
I792
tp2582
a(I388
I793
tp2583
a(I388
I794
tp2584
a(I388
I795
tp2585
a(I388
I796
tp2586
a(I388
I797
tp2587
a(I433
I788
tp2588
a(I433
I789
tp2589
a(I433
I790
tp2590
a(I433
I791
tp2591
a(I433
I792
tp2592
a(I433
I793
tp2593
a(I433
I794
tp2594
a(I387
I781
tp2595
a(I387
I782
tp2596
a(I387
I783
tp2597
a(I387
I784
tp2598
a(I387
I785
tp2599
a(I387
I786
tp2600
a(I387
I787
tp2601
a(I387
I788
tp2602
a(I387
I789
tp2603
a(I387
I790
tp2604
a(I387
I791
tp2605
a(I387
I792
tp2606
a(I387
I793
tp2607
a(I387
I794
tp2608
a(I387
I795
tp2609
a(I387
I796
tp2610
a(I434
I788
tp2611
a(I434
I789
tp2612
a(I434
I790
tp2613
a(I434
I791
tp2614
a(I434
I792
tp2615
a(I434
I793
tp2616
a(I434
I794
tp2617
a(I386
I781
tp2618
a(I386
I782
tp2619
a(I386
I783
tp2620
a(I386
I784
tp2621
a(I386
I785
tp2622
a(I386
I786
tp2623
a(I386
I787
tp2624
a(I386
I788
tp2625
a(I386
I789
tp2626
a(I386
I790
tp2627
a(I386
I791
tp2628
a(I386
I792
tp2629
a(I386
I793
tp2630
a(I386
I794
tp2631
a(I386
I795
tp2632
a(I386
I796
tp2633
a(I435
I788
tp2634
a(I435
I789
tp2635
a(I435
I790
tp2636
a(I435
I791
tp2637
a(I435
I792
tp2638
a(I435
I793
tp2639
a(I435
I794
tp2640
a(I385
I782
tp2641
a(I385
I783
tp2642
a(I385
I784
tp2643
a(I385
I785
tp2644
a(I385
I786
tp2645
a(I385
I787
tp2646
a(I385
I788
tp2647
a(I385
I789
tp2648
a(I385
I790
tp2649
a(I385
I791
tp2650
a(I385
I792
tp2651
a(I385
I793
tp2652
a(I385
I794
tp2653
a(I385
I795
tp2654
a(I385
I796
tp2655
a(I436
I789
tp2656
a(I436
I790
tp2657
a(I436
I791
tp2658
a(I436
I792
tp2659
a(I436
I793
tp2660
a(I384
I782
tp2661
a(I384
I783
tp2662
a(I384
I784
tp2663
a(I384
I785
tp2664
a(I384
I786
tp2665
a(I384
I787
tp2666
a(I384
I788
tp2667
a(I384
I789
tp2668
a(I384
I790
tp2669
a(I384
I791
tp2670
a(I384
I792
tp2671
a(I384
I793
tp2672
a(I384
I794
tp2673
a(I384
I795
tp2674
a(I384
I796
tp2675
a(I437
I789
tp2676
a(I437
I790
tp2677
a(I437
I791
tp2678
a(I437
I792
tp2679
a(I437
I793
tp2680
a(I383
I782
tp2681
a(I383
I783
tp2682
a(I383
I784
tp2683
a(I383
I785
tp2684
a(I383
I786
tp2685
a(I383
I787
tp2686
a(I383
I788
tp2687
a(I383
I789
tp2688
a(I383
I790
tp2689
a(I383
I791
tp2690
a(I383
I792
tp2691
a(I383
I793
tp2692
a(I383
I794
tp2693
a(I383
I795
tp2694
a(I438
I789
tp2695
a(I438
I790
tp2696
a(I438
I791
tp2697
a(I438
I792
tp2698
a(I438
I793
tp2699
a(I382
I783
tp2700
a(I382
I784
tp2701
a(I382
I785
tp2702
a(I382
I786
tp2703
a(I382
I787
tp2704
a(I382
I788
tp2705
a(I382
I789
tp2706
a(I382
I790
tp2707
a(I382
I791
tp2708
a(I382
I792
tp2709
a(I382
I793
tp2710
a(I382
I794
tp2711
a(I382
I795
tp2712
a(I439
I789
tp2713
a(I439
I790
tp2714
a(I439
I791
tp2715
a(I439
I792
tp2716
a(I439
I793
tp2717
a(I381
I783
tp2718
a(I381
I784
tp2719
a(I381
I785
tp2720
a(I381
I786
tp2721
a(I381
I787
tp2722
a(I381
I788
tp2723
a(I381
I789
tp2724
a(I381
I790
tp2725
a(I381
I791
tp2726
a(I381
I792
tp2727
a(I381
I793
tp2728
a(I381
I794
tp2729
a(I381
I795
tp2730
a(I440
I789
tp2731
a(I440
I790
tp2732
a(I440
I791
tp2733
a(I440
I792
tp2734
a(I440
I793
tp2735
a(I380
I783
tp2736
a(I380
I784
tp2737
a(I380
I785
tp2738
a(I380
I786
tp2739
a(I380
I787
tp2740
a(I380
I788
tp2741
a(I380
I789
tp2742
a(I380
I790
tp2743
a(I380
I791
tp2744
a(I380
I792
tp2745
a(I380
I793
tp2746
a(I380
I794
tp2747
a(I380
I795
tp2748
a(I441
I789
tp2749
a(I441
I790
tp2750
a(I441
I791
tp2751
a(I441
I792
tp2752
a(I441
I793
tp2753
a(I379
I783
tp2754
a(I379
I784
tp2755
a(I379
I785
tp2756
a(I379
I786
tp2757
a(I379
I787
tp2758
a(I379
I788
tp2759
a(I379
I789
tp2760
a(I379
I790
tp2761
a(I379
I791
tp2762
a(I379
I792
tp2763
a(I379
I793
tp2764
a(I379
I794
tp2765
a(I442
I789
tp2766
a(I442
I790
tp2767
a(I442
I791
tp2768
a(I442
I792
tp2769
a(I442
I793
tp2770
a(I378
I784
tp2771
a(I378
I785
tp2772
a(I378
I786
tp2773
a(I378
I787
tp2774
a(I378
I788
tp2775
a(I378
I789
tp2776
a(I378
I790
tp2777
a(I378
I791
tp2778
a(I378
I792
tp2779
a(I378
I793
tp2780
a(I378
I794
tp2781
a(I443
I789
tp2782
a(I443
I790
tp2783
a(I443
I791
tp2784
a(I443
I792
tp2785
a(I377
I785
tp2786
a(I377
I786
tp2787
a(I377
I787
tp2788
a(I377
I788
tp2789
a(I377
I789
tp2790
a(I377
I790
tp2791
a(I377
I791
tp2792
a(I377
I792
tp2793
a(I377
I793
tp2794
a(I444
I789
tp2795
a(I444
I790
tp2796
a(I444
I791
tp2797
a(I444
I792
tp2798
a(I376
I785
tp2799
a(I376
I786
tp2800
a(I376
I787
tp2801
a(I376
I788
tp2802
a(I376
I789
tp2803
a(I376
I790
tp2804
a(I376
I791
tp2805
a(I376
I792
tp2806
a(I445
I790
tp2807
a(I445
I791
tp2808
a(I445
I792
tp2809
a(I375
I786
tp2810
a(I375
I787
tp2811
a(I375
I788
tp2812
a(I375
I789
tp2813
a(I375
I790
tp2814
a(I375
I791
tp2815
a(I446
I790
tp2816
a(I446
I791
tp2817
a(I446
I792
tp2818
a(I374
I787
tp2819
a(I374
I788
tp2820
a(I374
I789
tp2821
a(I447
I790
tp2822
a(I447
I791
tp2823
a(I448
I790
tp2824
a(I448
I791
tp2825
a(I449
I790
tp2826
a(I449
I791
tp2827
a(I450
I790
tp2828
a(I450
I791
tp2829
a(I451
I790
tp2830
a(I452
I790
tp2831
a(I453
I790
tp2832
a(I454
I790
tp2833
asg197
g198
(g202
S'e\x90\n\xef9Q\x10@'
p2834
tp2835
Rp2836
sg208
g198
(g202
S'\x99\\AL\xae\xa0&@'
p2837
tp2838
Rp2839
sg212
I374
sg213
I764
sg214
g198
(g202
S'\xdf0{9\x10\xa40@'
p2840
tp2841
Rp2842
sg218
I797
sg219
I33
sa(dp2843
g2
I499
sg3
I13
sg4
(lp2844
(I486
I767
tp2845
a(I487
I767
tp2846
a(I488
I767
tp2847
a(I489
I768
tp2848
a(I488
I769
tp2849
a(I489
I769
tp2850
a(I490
I769
tp2851
a(I487
I770
tp2852
a(I488
I770
tp2853
a(I489
I770
tp2854
a(I490
I770
tp2855
a(I491
I769
tp2856
a(I491
I770
tp2857
a(I486
I771
tp2858
a(I487
I771
tp2859
a(I489
I771
tp2860
a(I490
I771
tp2861
a(I491
I771
tp2862
a(I492
I770
tp2863
a(I492
I771
tp2864
a(I493
I770
tp2865
a(I493
I771
tp2866
a(I493
I772
tp2867
a(I494
I770
tp2868
a(I494
I771
tp2869
a(I494
I772
tp2870
a(I494
I773
tp2871
a(I495
I770
tp2872
a(I495
I771
tp2873
a(I495
I772
tp2874
a(I495
I773
tp2875
a(I494
I774
tp2876
a(I495
I774
tp2877
a(I496
I771
tp2878
a(I496
I772
tp2879
a(I496
I773
tp2880
a(I496
I774
tp2881
a(I494
I775
tp2882
a(I495
I775
tp2883
a(I497
I771
tp2884
a(I497
I772
tp2885
a(I497
I773
tp2886
a(I495
I776
tp2887
a(I498
I771
tp2888
a(I498
I772
tp2889
a(I495
I777
tp2890
a(I496
I777
tp2891
a(I499
I771
tp2892
a(I499
I772
tp2893
a(I496
I778
tp2894
a(I497
I776
tp2895
a(I497
I777
tp2896
a(I497
I778
tp2897
a(I498
I775
tp2898
a(I498
I777
tp2899
a(I498
I778
tp2900
a(I499
I774
tp2901
a(I499
I777
tp2902
a(I499
I778
tp2903
asg197
g198
(g202
S'\x90\x81\x96h\xce\xe1\xf2?'
p2904
tp2905
Rp2906
sg208
g198
(g202
S'#h8\xa9\xfb\xf2\x08@'
p2907
tp2908
Rp2909
sg212
I486
sg213
I767
sg214
g198
(g202
S'P\xf4\xf62\x83H\xf6?'
p2910
tp2911
Rp2912
sg218
I778
sg219
I11
sa(dp2913
g2
I194
sg3
I25
sg4
(lp2914
(I189
I970
tp2915
a(I189
I971
tp2916
a(I189
I972
tp2917
a(I188
I973
tp2918
a(I189
I973
tp2919
a(I187
I974
tp2920
a(I188
I974
tp2921
a(I189
I974
tp2922
a(I186
I974
tp2923
a(I186
I975
tp2924
a(I187
I975
tp2925
a(I188
I975
tp2926
a(I189
I975
tp2927
a(I190
I975
tp2928
a(I185
I975
tp2929
a(I185
I976
tp2930
a(I186
I976
tp2931
a(I187
I976
tp2932
a(I188
I976
tp2933
a(I189
I976
tp2934
a(I190
I976
tp2935
a(I191
I975
tp2936
a(I191
I976
tp2937
a(I184
I976
tp2938
a(I184
I977
tp2939
a(I185
I977
tp2940
a(I186
I977
tp2941
a(I187
I977
tp2942
a(I188
I977
tp2943
a(I189
I977
tp2944
a(I190
I977
tp2945
a(I191
I977
tp2946
a(I192
I977
tp2947
a(I183
I976
tp2948
a(I183
I977
tp2949
a(I183
I978
tp2950
a(I184
I978
tp2951
a(I185
I978
tp2952
a(I186
I978
tp2953
a(I187
I978
tp2954
a(I188
I978
tp2955
a(I189
I978
tp2956
a(I190
I978
tp2957
a(I191
I978
tp2958
a(I182
I976
tp2959
a(I182
I977
tp2960
a(I182
I978
tp2961
a(I182
I979
tp2962
a(I183
I979
tp2963
a(I184
I979
tp2964
a(I185
I979
tp2965
a(I186
I979
tp2966
a(I187
I979
tp2967
a(I188
I979
tp2968
a(I189
I979
tp2969
a(I190
I979
tp2970
a(I191
I979
tp2971
a(I192
I979
tp2972
a(I181
I976
tp2973
a(I181
I977
tp2974
a(I181
I978
tp2975
a(I181
I979
tp2976
a(I181
I980
tp2977
a(I182
I980
tp2978
a(I183
I980
tp2979
a(I184
I980
tp2980
a(I185
I980
tp2981
a(I186
I980
tp2982
a(I187
I980
tp2983
a(I188
I980
tp2984
a(I189
I980
tp2985
a(I190
I980
tp2986
a(I191
I980
tp2987
a(I192
I980
tp2988
a(I193
I980
tp2989
a(I180
I976
tp2990
a(I180
I977
tp2991
a(I180
I978
tp2992
a(I180
I979
tp2993
a(I180
I980
tp2994
a(I180
I981
tp2995
a(I181
I981
tp2996
a(I182
I981
tp2997
a(I183
I981
tp2998
a(I184
I981
tp2999
a(I185
I981
tp3000
a(I186
I981
tp3001
a(I187
I981
tp3002
a(I188
I981
tp3003
a(I189
I981
tp3004
a(I190
I981
tp3005
a(I191
I981
tp3006
a(I192
I981
tp3007
a(I193
I981
tp3008
a(I194
I981
tp3009
a(I179
I976
tp3010
a(I179
I977
tp3011
a(I179
I978
tp3012
a(I179
I979
tp3013
a(I179
I980
tp3014
a(I179
I982
tp3015
a(I178
I977
tp3016
a(I178
I978
tp3017
a(I178
I979
tp3018
a(I180
I983
tp3019
a(I177
I977
tp3020
a(I177
I978
tp3021
a(I177
I979
tp3022
a(I181
I984
tp3023
a(I176
I977
tp3024
a(I176
I978
tp3025
a(I182
I985
tp3026
a(I175
I977
tp3027
a(I175
I978
tp3028
a(I183
I986
tp3029
a(I174
I977
tp3030
a(I173
I977
tp3031
a(I173
I978
tp3032
a(I172
I977
tp3033
a(I172
I978
tp3034
a(I171
I977
tp3035
a(I171
I978
tp3036
a(I170
I977
tp3037
a(I170
I978
tp3038
a(I169
I977
tp3039
a(I169
I978
tp3040
asg197
g198
(g202
S'\x08meIB\xe4\x02@'
p3041
tp3042
Rp3043
sg208
g198
(g202
S'\xcb\xb2,\xcb\xb2,\x17@'
p3044
tp3045
Rp3046
sg212
I169
sg213
I970
sg214
g198
(g202
S'\xcb\x9eb\x87MN\x16@'
p3047
tp3048
Rp3049
sg218
I986
sg219
I16
sa.