(lp0
(dp1
S'deviation'
p2
cnumpy.core.multiarray
scalar
p3
(cnumpy
dtype
p4
(S'f8'
p5
I0
I1
tp6
Rp7
(I3
S'<'
p8
NNNI-1
I-1
I0
tp9
bS'5\x93\xf9\x95L\x05\x15@'
p10
tp11
Rp12
sS'height'
p13
I12
sS'Y'
p14
I117
sS'bboxvariance'
p15
g3
(g7
S'k/\xa1\xbd\xd8 \x11@'
p16
tp17
Rp18
sS'X'
p19
I459
sS'width'
p20
I16
sS'points'
p21
(lp22
(I459
I117
tp23
a(I459
I118
tp24
a(I459
I119
tp25
a(I460
I119
tp26
a(I460
I120
tp27
a(I459
I120
tp28
a(I461
I119
tp29
a(I462
I118
tp30
a(I462
I119
tp31
a(I462
I117
tp32
a(I463
I119
tp33
a(I463
I117
tp34
a(I462
I120
tp35
a(I464
I120
tp36
a(I464
I118
tp37
a(I465
I119
tp38
a(I466
I120
tp39
a(I467
I121
tp40
a(I468
I122
tp41
a(I469
I123
tp42
a(I470
I124
tp43
a(I471
I125
tp44
a(I472
I126
tp45
a(I473
I127
tp46
a(I474
I128
tp47
a(I475
I129
tp48
asS'X2'
p49
I475
sS'variance'
p50
g3
(g7
S'\xa8t\xfb\xca\xea\x9d;@'
p51
tp52
Rp53
sS'Y2'
p54
I129
sS'mean'
p55
g3
(g7
S'\xb1\x13;\xb1\x13;\x1f@'
p56
tp57
Rp58
sa(dp59
g2
g3
(g7
S'\x92\x8aL;\x80\x10\x07@'
p60
tp61
Rp62
sg13
I15
sg14
I154
sg15
g3
(g7
S'\xcag\xb7\xee\xf4\x91\x1a@'
p63
tp64
Rp65
sg19
I433
sg20
I19
sg21
(lp66
(I437
I154
tp67
a(I436
I155
tp68
a(I437
I155
tp69
a(I438
I154
tp70
a(I438
I155
tp71
a(I435
I155
tp72
a(I437
I156
tp73
a(I439
I155
tp74
a(I434
I155
tp75
a(I440
I156
tp76
a(I433
I155
tp77
a(I439
I157
tp78
a(I440
I155
tp79
a(I440
I157
tp80
a(I441
I155
tp81
a(I441
I156
tp82
a(I441
I157
tp83
a(I438
I157
tp84
a(I439
I158
tp85
a(I440
I158
tp86
a(I441
I158
tp87
a(I442
I155
tp88
a(I442
I156
tp89
a(I442
I157
tp90
a(I442
I158
tp91
a(I440
I159
tp92
a(I441
I159
tp93
a(I442
I159
tp94
a(I443
I156
tp95
a(I443
I157
tp96
a(I443
I158
tp97
a(I443
I159
tp98
a(I441
I160
tp99
a(I442
I160
tp100
a(I443
I160
tp101
a(I444
I156
tp102
a(I444
I157
tp103
a(I444
I158
tp104
a(I444
I159
tp105
a(I444
I160
tp106
a(I441
I161
tp107
a(I442
I161
tp108
a(I443
I161
tp109
a(I444
I161
tp110
a(I445
I157
tp111
a(I445
I158
tp112
a(I445
I159
tp113
a(I445
I160
tp114
a(I445
I161
tp115
a(I442
I162
tp116
a(I443
I162
tp117
a(I444
I162
tp118
a(I445
I162
tp119
a(I446
I158
tp120
a(I446
I159
tp121
a(I446
I160
tp122
a(I446
I161
tp123
a(I442
I163
tp124
a(I443
I163
tp125
a(I444
I163
tp126
a(I447
I159
tp127
a(I447
I160
tp128
a(I447
I161
tp129
a(I448
I160
tp130
a(I448
I161
tp131
a(I448
I162
tp132
a(I449
I161
tp133
a(I447
I163
tp134
a(I448
I163
tp135
a(I449
I162
tp136
a(I447
I164
tp137
a(I448
I164
tp138
a(I449
I164
tp139
a(I446
I165
tp140
a(I450
I165
tp141
a(I445
I166
tp142
a(I450
I164
tp143
a(I451
I164
tp144
a(I451
I165
tp145
a(I451
I166
tp146
a(I444
I165
tp147
a(I444
I167
tp148
a(I451
I167
tp149
a(I443
I165
tp150
a(I443
I166
tp151
a(I443
I168
tp152
a(I444
I168
tp153
a(I445
I168
tp154
a(I443
I169
tp155
a(I444
I169
tp156
a(I445
I169
tp157
a(I446
I168
tp158
a(I446
I169
tp159
a(I447
I168
tp160
a(I447
I169
tp161
a(I448
I168
tp162
a(I448
I169
tp163
a(I449
I168
tp164
a(I449
I169
tp165
a(I450
I168
tp166
a(I450
I169
tp167
a(I451
I168
tp168
a(I451
I169
tp169
a(I452
I168
tp170
a(I452
I169
tp171
asg49
I452
sg50
g3
(g7
S'\x8f.{\xd7\xc0\x9f @'
p172
tp173
Rp174
sg54
I169
sg55
g3
(g7
S'\x0c\xc30\x0c\xc30\x14@'
p175
tp176
Rp177
sa(dp178
g2
g3
(g7
S'\xd3\xa8\x0b!Hw\x0b@'
p179
tp180
Rp181
sg13
I13
sg14
I175
sg15
g3
(g7
S'\x16\xc3\xda\x04\xfa\x91\x15@'
p182
tp183
Rp184
sg19
I424
sg20
I28
sg21
(lp185
(I441
I175
tp186
a(I441
I176
tp187
a(I441
I177
tp188
a(I440
I178
tp189
a(I441
I178
tp190
a(I442
I178
tp191
a(I440
I179
tp192
a(I441
I179
tp193
a(I442
I179
tp194
a(I443
I177
tp195
a(I443
I178
tp196
a(I440
I180
tp197
a(I441
I180
tp198
a(I442
I180
tp199
a(I443
I176
tp200
a(I444
I176
tp201
a(I444
I177
tp202
a(I444
I178
tp203
a(I444
I179
tp204
a(I439
I181
tp205
a(I440
I181
tp206
a(I441
I181
tp207
a(I442
I181
tp208
a(I443
I181
tp209
a(I443
I175
tp210
a(I444
I175
tp211
a(I445
I175
tp212
a(I445
I176
tp213
a(I445
I177
tp214
a(I445
I178
tp215
a(I445
I179
tp216
a(I445
I180
tp217
a(I438
I181
tp218
a(I438
I182
tp219
a(I439
I182
tp220
a(I440
I182
tp221
a(I441
I182
tp222
a(I442
I182
tp223
a(I444
I182
tp224
a(I446
I175
tp225
a(I446
I176
tp226
a(I446
I177
tp227
a(I446
I179
tp228
a(I446
I180
tp229
a(I446
I181
tp230
a(I437
I181
tp231
a(I437
I182
tp232
a(I438
I183
tp233
a(I439
I183
tp234
a(I440
I183
tp235
a(I441
I183
tp236
a(I442
I183
tp237
a(I445
I183
tp238
a(I447
I175
tp239
a(I447
I176
tp240
a(I447
I177
tp241
a(I447
I180
tp242
a(I447
I181
tp243
a(I447
I182
tp244
a(I436
I180
tp245
a(I439
I184
tp246
a(I440
I184
tp247
a(I441
I184
tp248
a(I442
I184
tp249
a(I446
I184
tp250
a(I448
I175
tp251
a(I448
I176
tp252
a(I448
I177
tp253
a(I448
I181
tp254
a(I448
I182
tp255
a(I448
I183
tp256
a(I435
I179
tp257
a(I440
I185
tp258
a(I441
I185
tp259
a(I442
I185
tp260
a(I443
I185
tp261
a(I449
I175
tp262
a(I449
I176
tp263
a(I449
I177
tp264
a(I449
I182
tp265
a(I434
I178
tp266
a(I435
I178
tp267
a(I436
I178
tp268
a(I440
I186
tp269
a(I441
I186
tp270
a(I442
I186
tp271
a(I443
I186
tp272
a(I444
I186
tp273
a(I450
I175
tp274
a(I450
I176
tp275
a(I450
I177
tp276
a(I433
I178
tp277
a(I439
I187
tp278
a(I440
I187
tp279
a(I441
I187
tp280
a(I442
I187
tp281
a(I443
I187
tp282
a(I451
I175
tp283
a(I451
I176
tp284
a(I451
I177
tp285
a(I432
I178
tp286
a(I438
I187
tp287
a(I438
I188
tp288
a(I439
I188
tp289
a(I440
I188
tp290
a(I441
I188
tp291
a(I452
I175
tp292
a(I431
I178
tp293
a(I437
I187
tp294
a(I437
I188
tp295
a(I430
I178
tp296
a(I436
I187
tp297
a(I436
I188
tp298
a(I429
I178
tp299
a(I435
I186
tp300
a(I435
I188
tp301
a(I428
I178
tp302
a(I428
I179
tp303
a(I434
I185
tp304
a(I435
I185
tp305
a(I427
I178
tp306
a(I427
I180
tp307
a(I433
I184
tp308
a(I433
I185
tp309
a(I434
I184
tp310
a(I435
I184
tp311
a(I426
I178
tp312
a(I426
I179
tp313
a(I426
I180
tp314
a(I426
I181
tp315
a(I427
I181
tp316
a(I428
I181
tp317
a(I432
I183
tp318
a(I432
I184
tp319
a(I432
I185
tp320
a(I433
I183
tp321
a(I434
I183
tp322
a(I435
I183
tp323
a(I425
I181
tp324
a(I425
I182
tp325
a(I426
I182
tp326
a(I427
I182
tp327
a(I428
I182
tp328
a(I429
I181
tp329
a(I429
I182
tp330
a(I431
I182
tp331
a(I431
I184
tp332
a(I431
I185
tp333
a(I431
I186
tp334
a(I424
I181
tp335
a(I424
I182
tp336
a(I425
I183
tp337
a(I426
I183
tp338
a(I427
I183
tp339
a(I430
I181
tp340
a(I430
I182
tp341
a(I431
I181
tp342
a(I432
I181
tp343
a(I430
I184
tp344
a(I430
I185
tp345
a(I430
I186
tp346
a(I431
I187
tp347
a(I425
I184
tp348
a(I426
I184
tp349
a(I427
I184
tp350
a(I433
I181
tp351
a(I429
I184
tp352
a(I429
I185
tp353
a(I430
I188
tp354
a(I425
I185
tp355
a(I434
I181
tp356
a(I429
I188
tp357
a(I428
I188
tp358
a(I427
I188
tp359
a(I426
I188
tp360
a(I425
I188
tp361
asg49
I452
sg50
g3
(g7
S"r\x08\xdcX\x06\x93'@"
p362
tp363
Rp364
sg54
I188
sg55
g3
(g7
S'\x8c.\xba\xe8\xa2K\x1d@'
p365
tp366
Rp367
sa(dp368
g2
g3
(g7
S'i\xfcH\x16\xcfo\x04@'
p369
tp370
Rp371
sg13
I11
sg14
I227
sg15
g3
(g7
S'\x83\x10*\x15M\xe8\x07@'
p372
tp373
Rp374
sg19
I250
sg20
I14
sg21
(lp375
(I250
I227
tp376
a(I250
I228
tp377
a(I251
I228
tp378
a(I250
I229
tp379
a(I251
I229
tp380
a(I252
I228
tp381
a(I252
I229
tp382
a(I251
I230
tp383
a(I253
I229
tp384
a(I252
I231
tp385
a(I254
I230
tp386
a(I254
I231
tp387
a(I255
I230
tp388
a(I255
I231
tp389
a(I253
I232
tp390
a(I254
I232
tp391
a(I255
I232
tp392
a(I256
I232
tp393
a(I254
I233
tp394
a(I255
I233
tp395
a(I257
I231
tp396
a(I257
I233
tp397
a(I256
I234
tp398
a(I257
I232
tp399
a(I258
I231
tp400
a(I258
I232
tp401
a(I257
I234
tp402
a(I258
I233
tp403
a(I258
I234
tp404
a(I255
I235
tp405
a(I259
I231
tp406
a(I259
I232
tp407
a(I259
I233
tp408
a(I259
I234
tp409
a(I254
I236
tp410
a(I260
I231
tp411
a(I260
I232
tp412
a(I260
I233
tp413
a(I260
I234
tp414
a(I253
I237
tp415
a(I261
I231
tp416
a(I261
I232
tp417
a(I261
I233
tp418
a(I261
I234
tp419
a(I252
I238
tp420
a(I262
I231
tp421
a(I262
I232
tp422
a(I262
I233
tp423
a(I263
I231
tp424
a(I263
I232
tp425
a(I264
I232
tp426
asg49
I264
sg50
g3
(g7
S'u\xfc\x83\x0b\x93\x1a\x1a@'
p427
tp428
Rp429
sg54
I238
sg55
g3
(g7
S'<<<<<<\x10@'
p430
tp431
Rp432
sa(dp433
g2
g3
(g7
S'\xf8\xa0)\x0b\x85\x11\xf8?'
p434
tp435
Rp436
sg13
I11
sg14
I243
sg15
g3
(g7
S'Q\x0c5\xa6\x1b\xa4\x08@'
p437
tp438
Rp439
sg19
I292
sg20
I19
sg21
(lp440
(I301
I243
tp441
a(I300
I244
tp442
a(I301
I244
tp443
a(I302
I243
tp444
a(I299
I244
tp445
a(I299
I245
tp446
a(I300
I245
tp447
a(I301
I245
tp448
a(I302
I245
tp449
a(I298
I244
tp450
a(I298
I245
tp451
a(I298
I246
tp452
a(I299
I246
tp453
a(I300
I246
tp454
a(I301
I246
tp455
a(I302
I246
tp456
a(I303
I245
tp457
a(I297
I244
tp458
a(I297
I245
tp459
a(I297
I246
tp460
a(I297
I247
tp461
a(I298
I247
tp462
a(I299
I247
tp463
a(I296
I245
tp464
a(I296
I246
tp465
a(I296
I247
tp466
a(I300
I248
tp467
a(I295
I246
tp468
a(I295
I247
tp469
a(I301
I249
tp470
a(I294
I247
tp471
a(I302
I250
tp472
a(I293
I247
tp473
a(I303
I250
tp474
a(I292
I247
tp475
a(I304
I249
tp476
a(I304
I250
tp477
a(I304
I248
tp478
a(I305
I248
tp479
a(I305
I249
tp480
a(I305
I250
tp481
a(I304
I247
tp482
a(I305
I247
tp483
a(I306
I248
tp484
a(I306
I249
tp485
a(I306
I250
tp486
a(I305
I246
tp487
a(I307
I249
tp488
a(I307
I250
tp489
a(I304
I245
tp490
a(I308
I251
tp491
a(I308
I252
tp492
a(I309
I253
tp493
a(I308
I253
tp494
a(I308
I254
tp495
a(I310
I253
tp496
a(I311
I253
tp497
asg49
I311
sg50
g3
(g7
S'}rC(Q\x1a\x02@'
p498
tp499
Rp500
sg54
I254
sg55
g3
(g7
S'?\x82\xfb\x08\xee#\x08@'
p501
tp502
Rp503
sa(dp504
g2
g3
(g7
S'^\xf9\xc7\xbf\xb7r\xf8?'
p505
tp506
Rp507
sg13
I12
sg14
I274
sg15
g3
(g7
S'\xf0\xd5\xf57\xc3g\x10@'
p508
tp509
Rp510
sg19
I289
sg20
I21
sg21
(lp511
(I305
I274
tp512
a(I304
I275
tp513
a(I305
I275
tp514
a(I305
I276
tp515
a(I306
I277
tp516
a(I305
I278
tp517
a(I307
I277
tp518
a(I304
I278
tp519
a(I304
I279
tp520
a(I305
I279
tp521
a(I308
I276
tp522
a(I308
I277
tp523
a(I308
I278
tp524
a(I303
I277
tp525
a(I303
I278
tp526
a(I303
I279
tp527
a(I308
I279
tp528
a(I302
I279
tp529
a(I308
I280
tp530
a(I301
I278
tp531
a(I301
I279
tp532
a(I309
I281
tp533
a(I300
I278
tp534
a(I300
I279
tp535
a(I309
I282
tp536
a(I310
I281
tp537
a(I299
I278
tp538
a(I299
I279
tp539
a(I299
I280
tp540
a(I308
I283
tp541
a(I298
I278
tp542
a(I298
I279
tp543
a(I298
I281
tp544
a(I297
I278
tp545
a(I297
I279
tp546
a(I297
I280
tp547
a(I299
I282
tp548
a(I296
I278
tp549
a(I296
I279
tp550
a(I296
I280
tp551
a(I298
I283
tp552
a(I299
I283
tp553
a(I300
I282
tp554
a(I300
I283
tp555
a(I295
I278
tp556
a(I295
I279
tp557
a(I295
I280
tp558
a(I297
I284
tp559
a(I299
I284
tp560
a(I301
I283
tp561
a(I301
I284
tp562
a(I294
I278
tp563
a(I294
I279
tp564
a(I294
I280
tp565
a(I296
I284
tp566
a(I298
I285
tp567
a(I302
I283
tp568
a(I302
I284
tp569
a(I301
I285
tp570
a(I302
I285
tp571
a(I293
I278
tp572
a(I293
I280
tp573
a(I293
I281
tp574
a(I295
I284
tp575
a(I299
I286
tp576
a(I303
I282
tp577
a(I303
I283
tp578
a(I303
I284
tp579
a(I303
I285
tp580
a(I301
I286
tp581
a(I302
I286
tp582
a(I303
I286
tp583
a(I292
I279
tp584
a(I292
I280
tp585
a(I292
I281
tp586
a(I303
I281
tp587
a(I304
I281
tp588
a(I304
I282
tp589
a(I304
I283
tp590
a(I304
I285
tp591
a(I291
I279
tp592
a(I291
I280
tp593
a(I291
I281
tp594
a(I305
I284
tp595
a(I290
I279
tp596
a(I290
I280
tp597
a(I290
I281
tp598
a(I290
I282
tp599
a(I289
I278
tp600
asg49
I310
sg50
g3
(g7
S'\xdb\x84\x01\xe1\xae\xad\x02@'
p601
tp602
Rp603
sg54
I286
sg55
g3
(g7
S'\xec^\xf7\xba\xd7\xbd\x06@'
p604
tp605
Rp606
sa(dp607
g2
g3
(g7
S'\xa1\x12\x01G\xdc\xc9\x00@'
p608
tp609
Rp610
sg13
I19
sg14
I429
sg15
g3
(g7
S'\x13Xz/f\xfe"@'
p611
tp612
Rp613
sg19
I503
sg20
I24
sg21
(lp614
(I518
I429
tp615
a(I517
I430
tp616
a(I518
I430
tp617
a(I519
I429
tp618
a(I519
I430
tp619
a(I516
I430
tp620
a(I516
I431
tp621
a(I517
I431
tp622
a(I518
I431
tp623
a(I519
I431
tp624
a(I520
I429
tp625
a(I520
I430
tp626
a(I520
I431
tp627
a(I515
I430
tp628
a(I515
I431
tp629
a(I515
I432
tp630
a(I516
I432
tp631
a(I517
I432
tp632
a(I518
I432
tp633
a(I519
I432
tp634
a(I520
I432
tp635
a(I521
I429
tp636
a(I521
I430
tp637
a(I521
I431
tp638
a(I521
I432
tp639
a(I514
I431
tp640
a(I514
I430
tp641
a(I514
I432
tp642
a(I514
I433
tp643
a(I515
I433
tp644
a(I516
I433
tp645
a(I522
I429
tp646
a(I522
I430
tp647
a(I522
I431
tp648
a(I522
I432
tp649
a(I513
I430
tp650
a(I513
I433
tp651
a(I513
I432
tp652
a(I515
I434
tp653
a(I523
I429
tp654
a(I523
I430
tp655
a(I523
I431
tp656
a(I523
I432
tp657
a(I512
I430
tp658
a(I512
I431
tp659
a(I512
I432
tp660
a(I512
I433
tp661
a(I513
I434
tp662
a(I514
I434
tp663
a(I513
I431
tp664
a(I514
I435
tp665
a(I515
I435
tp666
a(I524
I429
tp667
a(I524
I430
tp668
a(I524
I431
tp669
a(I524
I432
tp670
a(I511
I430
tp671
a(I511
I431
tp672
a(I511
I432
tp673
a(I511
I433
tp674
a(I513
I435
tp675
a(I513
I436
tp676
a(I514
I436
tp677
a(I515
I436
tp678
a(I525
I429
tp679
a(I525
I430
tp680
a(I525
I431
tp681
a(I510
I430
tp682
a(I510
I431
tp683
a(I510
I432
tp684
a(I510
I433
tp685
a(I513
I437
tp686
a(I514
I437
tp687
a(I515
I437
tp688
a(I526
I429
tp689
a(I526
I430
tp690
a(I526
I431
tp691
a(I509
I430
tp692
a(I509
I431
tp693
a(I509
I432
tp694
a(I509
I433
tp695
a(I513
I438
tp696
a(I514
I438
tp697
a(I515
I438
tp698
a(I527
I429
tp699
a(I527
I431
tp700
a(I508
I430
tp701
a(I508
I431
tp702
a(I508
I432
tp703
a(I508
I433
tp704
a(I513
I439
tp705
a(I514
I439
tp706
a(I515
I439
tp707
a(I507
I430
tp708
a(I507
I431
tp709
a(I507
I432
tp710
a(I507
I433
tp711
a(I513
I440
tp712
a(I514
I440
tp713
a(I515
I440
tp714
a(I506
I430
tp715
a(I506
I431
tp716
a(I506
I432
tp717
a(I506
I433
tp718
a(I513
I441
tp719
a(I514
I441
tp720
a(I515
I441
tp721
a(I505
I433
tp722
a(I505
I434
tp723
a(I513
I442
tp724
a(I514
I442
tp725
a(I515
I442
tp726
a(I504
I432
tp727
a(I504
I434
tp728
a(I504
I435
tp729
a(I505
I435
tp730
a(I513
I443
tp731
a(I514
I443
tp732
a(I515
I443
tp733
a(I503
I431
tp734
a(I503
I434
tp735
a(I503
I435
tp736
a(I503
I436
tp737
a(I504
I436
tp738
a(I505
I436
tp739
a(I512
I444
tp740
a(I513
I444
tp741
a(I514
I444
tp742
a(I503
I437
tp743
a(I504
I437
tp744
a(I505
I437
tp745
a(I511
I445
tp746
a(I512
I445
tp747
a(I513
I445
tp748
a(I514
I445
tp749
a(I503
I438
tp750
a(I504
I438
tp751
a(I505
I438
tp752
a(I510
I445
tp753
a(I511
I446
tp754
a(I512
I446
tp755
a(I513
I446
tp756
a(I503
I439
tp757
a(I504
I439
tp758
a(I505
I439
tp759
a(I509
I444
tp760
a(I509
I446
tp761
a(I510
I447
tp762
a(I511
I447
tp763
a(I503
I440
tp764
a(I504
I440
tp765
a(I505
I440
tp766
a(I508
I445
tp767
a(I510
I443
tp768
a(I508
I446
tp769
a(I508
I447
tp770
a(I509
I447
tp771
a(I509
I448
tp772
a(I510
I448
tp773
a(I503
I441
tp774
a(I504
I441
tp775
a(I505
I441
tp776
a(I507
I445
tp777
a(I507
I446
tp778
a(I511
I442
tp779
a(I507
I447
tp780
a(I507
I448
tp781
a(I508
I448
tp782
a(I503
I442
tp783
a(I504
I442
tp784
a(I505
I442
tp785
a(I506
I447
tp786
a(I506
I448
tp787
a(I503
I443
tp788
a(I504
I443
tp789
a(I505
I443
tp790
a(I505
I447
tp791
a(I503
I444
tp792
a(I504
I444
tp793
a(I505
I444
tp794
a(I504
I446
tp795
a(I503
I445
tp796
a(I504
I445
tp797
a(I505
I445
tp798
a(I506
I445
tp799
asg49
I527
sg50
g3
(g7
S'\x0f\xc2RH\xab\x9d\x11@'
p800
tp801
Rp802
sg54
I448
sg55
g3
(g7
S'\xa5Qm\xb9J\x1a\r@'
p803
tp804
Rp805
sa(dp806
g2
g3
(g7
S'\xa8\xf5\xd5\x07\x8f\xa6\x06@'
p807
tp808
Rp809
sg13
I22
sg14
I456
sg15
g3
(g7
S'Z\xc15>\xd6r\x18@'
p810
tp811
Rp812
sg19
I493
sg20
I33
sg21
(lp813
(I521
I456
tp814
a(I520
I457
tp815
a(I521
I457
tp816
a(I522
I457
tp817
a(I520
I458
tp818
a(I521
I458
tp819
a(I522
I458
tp820
a(I523
I457
tp821
a(I523
I458
tp822
a(I520
I459
tp823
a(I521
I459
tp824
a(I522
I459
tp825
a(I523
I459
tp826
a(I524
I459
tp827
a(I520
I460
tp828
a(I521
I460
tp829
a(I522
I460
tp830
a(I523
I460
tp831
a(I524
I460
tp832
a(I521
I461
tp833
a(I522
I461
tp834
a(I523
I461
tp835
a(I524
I461
tp836
a(I525
I461
tp837
a(I522
I462
tp838
a(I523
I462
tp839
a(I524
I462
tp840
a(I525
I462
tp841
a(I522
I463
tp842
a(I523
I463
tp843
a(I524
I463
tp844
a(I525
I463
tp845
a(I526
I463
tp846
a(I523
I464
tp847
a(I524
I464
tp848
a(I525
I464
tp849
a(I526
I464
tp850
a(I523
I465
tp851
a(I524
I465
tp852
a(I525
I465
tp853
a(I526
I465
tp854
a(I523
I466
tp855
a(I524
I466
tp856
a(I525
I466
tp857
a(I522
I467
tp858
a(I523
I467
tp859
a(I524
I467
tp860
a(I525
I467
tp861
a(I522
I468
tp862
a(I523
I468
tp863
a(I524
I468
tp864
a(I525
I468
tp865
a(I522
I469
tp866
a(I523
I469
tp867
a(I524
I469
tp868
a(I525
I469
tp869
a(I521
I470
tp870
a(I522
I470
tp871
a(I523
I470
tp872
a(I524
I470
tp873
a(I521
I471
tp874
a(I522
I471
tp875
a(I523
I471
tp876
a(I524
I471
tp877
a(I520
I472
tp878
a(I521
I472
tp879
a(I522
I472
tp880
a(I523
I472
tp881
a(I519
I472
tp882
a(I519
I473
tp883
a(I520
I473
tp884
a(I521
I473
tp885
a(I522
I473
tp886
a(I518
I473
tp887
a(I518
I474
tp888
a(I519
I474
tp889
a(I520
I474
tp890
a(I521
I474
tp891
a(I522
I474
tp892
a(I517
I473
tp893
a(I517
I474
tp894
a(I517
I475
tp895
a(I518
I475
tp896
a(I519
I475
tp897
a(I520
I475
tp898
a(I521
I475
tp899
a(I516
I473
tp900
a(I516
I474
tp901
a(I516
I475
tp902
a(I516
I476
tp903
a(I517
I476
tp904
a(I518
I476
tp905
a(I519
I476
tp906
a(I515
I473
tp907
a(I515
I474
tp908
a(I515
I475
tp909
a(I515
I476
tp910
a(I515
I477
tp911
a(I516
I477
tp912
a(I517
I477
tp913
a(I514
I473
tp914
a(I514
I474
tp915
a(I514
I475
tp916
a(I514
I476
tp917
a(I514
I477
tp918
a(I518
I478
tp919
a(I513
I473
tp920
a(I513
I474
tp921
a(I513
I475
tp922
a(I513
I476
tp923
a(I513
I477
tp924
a(I519
I478
tp925
a(I512
I473
tp926
a(I512
I474
tp927
a(I512
I475
tp928
a(I512
I476
tp929
a(I512
I477
tp930
a(I520
I478
tp931
a(I511
I472
tp932
a(I511
I474
tp933
a(I511
I475
tp934
a(I511
I476
tp935
a(I521
I478
tp936
a(I510
I471
tp937
a(I510
I472
tp938
a(I510
I473
tp939
a(I510
I475
tp940
a(I522
I478
tp941
a(I509
I470
tp942
a(I509
I471
tp943
a(I509
I472
tp944
a(I510
I470
tp945
a(I509
I473
tp946
a(I509
I474
tp947
a(I509
I475
tp948
a(I508
I469
tp949
a(I508
I470
tp950
a(I508
I471
tp951
a(I509
I469
tp952
a(I510
I469
tp953
a(I508
I472
tp954
a(I508
I473
tp955
a(I508
I474
tp956
a(I507
I468
tp957
a(I507
I469
tp958
a(I507
I470
tp959
a(I508
I468
tp960
a(I509
I468
tp961
a(I507
I471
tp962
a(I507
I472
tp963
a(I506
I467
tp964
a(I506
I468
tp965
a(I506
I469
tp966
a(I507
I467
tp967
a(I508
I467
tp968
a(I506
I470
tp969
a(I509
I467
tp970
a(I506
I466
tp971
a(I507
I466
tp972
a(I508
I466
tp973
a(I509
I466
tp974
a(I506
I465
tp975
a(I507
I465
tp976
a(I508
I465
tp977
a(I509
I465
tp978
a(I506
I464
tp979
a(I507
I464
tp980
a(I508
I464
tp981
a(I509
I464
tp982
a(I505
I463
tp983
a(I506
I463
tp984
a(I507
I463
tp985
a(I504
I462
tp986
a(I504
I463
tp987
a(I505
I462
tp988
a(I506
I462
tp989
a(I507
I462
tp990
a(I508
I462
tp991
a(I508
I463
tp992
a(I503
I461
tp993
a(I503
I462
tp994
a(I503
I463
tp995
a(I504
I461
tp996
a(I505
I461
tp997
a(I506
I461
tp998
a(I507
I461
tp999
a(I508
I461
tp1000
a(I509
I461
tp1001
a(I509
I462
tp1002
a(I509
I463
tp1003
a(I502
I460
tp1004
a(I502
I461
tp1005
a(I502
I462
tp1006
a(I503
I460
tp1007
a(I504
I460
tp1008
a(I502
I463
tp1009
a(I505
I460
tp1010
a(I506
I460
tp1011
a(I507
I460
tp1012
a(I508
I460
tp1013
a(I509
I460
tp1014
a(I501
I459
tp1015
a(I501
I460
tp1016
a(I501
I461
tp1017
a(I502
I459
tp1018
a(I503
I459
tp1019
a(I501
I462
tp1020
a(I501
I463
tp1021
a(I504
I459
tp1022
a(I505
I459
tp1023
a(I506
I459
tp1024
a(I507
I459
tp1025
a(I508
I459
tp1026
a(I509
I459
tp1027
a(I500
I459
tp1028
a(I500
I460
tp1029
a(I500
I461
tp1030
a(I500
I462
tp1031
a(I500
I463
tp1032
a(I509
I458
tp1033
a(I499
I459
tp1034
a(I499
I460
tp1035
a(I499
I461
tp1036
a(I499
I462
tp1037
a(I499
I463
tp1038
a(I498
I460
tp1039
a(I498
I461
tp1040
a(I498
I462
tp1041
a(I498
I463
tp1042
a(I497
I460
tp1043
a(I497
I461
tp1044
a(I497
I462
tp1045
a(I497
I463
tp1046
a(I497
I464
tp1047
a(I496
I460
tp1048
a(I496
I461
tp1049
a(I496
I462
tp1050
a(I496
I463
tp1051
a(I496
I464
tp1052
a(I496
I465
tp1053
a(I497
I465
tp1054
a(I495
I460
tp1055
a(I495
I461
tp1056
a(I495
I462
tp1057
a(I495
I463
tp1058
a(I495
I464
tp1059
a(I495
I465
tp1060
a(I495
I466
tp1061
a(I496
I466
tp1062
a(I497
I466
tp1063
a(I494
I460
tp1064
a(I494
I461
tp1065
a(I494
I462
tp1066
a(I494
I463
tp1067
a(I494
I464
tp1068
a(I494
I465
tp1069
a(I494
I466
tp1070
a(I494
I467
tp1071
a(I495
I467
tp1072
a(I496
I467
tp1073
a(I497
I467
tp1074
a(I494
I468
tp1075
a(I495
I468
tp1076
a(I496
I468
tp1077
a(I497
I468
tp1078
a(I494
I469
tp1079
a(I495
I469
tp1080
a(I496
I469
tp1081
a(I497
I469
tp1082
a(I494
I470
tp1083
a(I495
I470
tp1084
a(I496
I470
tp1085
a(I497
I470
tp1086
a(I493
I471
tp1087
a(I494
I471
tp1088
a(I495
I471
tp1089
a(I496
I471
tp1090
a(I497
I471
tp1091
a(I493
I472
tp1092
a(I494
I472
tp1093
a(I495
I472
tp1094
a(I496
I472
tp1095
a(I497
I472
tp1096
a(I496
I473
tp1097
asg49
I526
sg50
g3
(g7
S'\xa6\xcb6\x99g\x08 @'
p1098
tp1099
Rp1100
sg54
I478
sg55
g3
(g7
S'A\xa2\x156\x07\x12\x13@'
p1101
tp1102
Rp1103
sa(dp1104
g2
g3
(g7
S'\xed_\x1a\xac\xc7\x8b\x03@'
p1105
tp1106
Rp1107
sg13
I23
sg14
I483
sg15
g3
(g7
S'\xba~\x91[\x80u\x17@'
p1108
tp1109
Rp1110
sg19
I492
sg20
I32
sg21
(lp1111
(I520
I483
tp1112
a(I520
I484
tp1113
a(I521
I484
tp1114
a(I519
I485
tp1115
a(I520
I485
tp1116
a(I521
I485
tp1117
a(I522
I485
tp1118
a(I519
I486
tp1119
a(I520
I486
tp1120
a(I521
I486
tp1121
a(I522
I486
tp1122
a(I523
I486
tp1123
a(I519
I487
tp1124
a(I520
I487
tp1125
a(I521
I487
tp1126
a(I522
I487
tp1127
a(I523
I487
tp1128
a(I520
I488
tp1129
a(I521
I488
tp1130
a(I522
I488
tp1131
a(I523
I488
tp1132
a(I524
I488
tp1133
a(I521
I489
tp1134
a(I522
I489
tp1135
a(I523
I489
tp1136
a(I524
I489
tp1137
a(I521
I490
tp1138
a(I522
I490
tp1139
a(I523
I490
tp1140
a(I524
I490
tp1141
a(I521
I491
tp1142
a(I522
I491
tp1143
a(I523
I491
tp1144
a(I524
I491
tp1145
a(I522
I492
tp1146
a(I523
I492
tp1147
a(I524
I492
tp1148
a(I522
I493
tp1149
a(I523
I493
tp1150
a(I524
I493
tp1151
a(I521
I494
tp1152
a(I522
I494
tp1153
a(I523
I494
tp1154
a(I524
I494
tp1155
a(I521
I495
tp1156
a(I522
I495
tp1157
a(I523
I495
tp1158
a(I524
I495
tp1159
a(I521
I496
tp1160
a(I522
I496
tp1161
a(I523
I496
tp1162
a(I524
I496
tp1163
a(I520
I497
tp1164
a(I521
I497
tp1165
a(I522
I497
tp1166
a(I523
I497
tp1167
a(I519
I498
tp1168
a(I520
I498
tp1169
a(I521
I498
tp1170
a(I522
I498
tp1171
a(I523
I498
tp1172
a(I518
I499
tp1173
a(I519
I499
tp1174
a(I520
I499
tp1175
a(I521
I499
tp1176
a(I522
I499
tp1177
a(I517
I500
tp1178
a(I518
I500
tp1179
a(I519
I500
tp1180
a(I520
I500
tp1181
a(I521
I500
tp1182
a(I516
I500
tp1183
a(I516
I501
tp1184
a(I517
I501
tp1185
a(I518
I501
tp1186
a(I519
I501
tp1187
a(I520
I501
tp1188
a(I515
I500
tp1189
a(I515
I501
tp1190
a(I515
I502
tp1191
a(I516
I502
tp1192
a(I517
I502
tp1193
a(I518
I502
tp1194
a(I519
I502
tp1195
a(I514
I500
tp1196
a(I514
I501
tp1197
a(I514
I502
tp1198
a(I514
I503
tp1199
a(I515
I503
tp1200
a(I516
I503
tp1201
a(I517
I503
tp1202
a(I518
I503
tp1203
a(I513
I500
tp1204
a(I513
I501
tp1205
a(I513
I502
tp1206
a(I513
I503
tp1207
a(I513
I504
tp1208
a(I514
I504
tp1209
a(I515
I504
tp1210
a(I516
I504
tp1211
a(I512
I500
tp1212
a(I512
I501
tp1213
a(I512
I502
tp1214
a(I512
I503
tp1215
a(I512
I504
tp1216
a(I511
I500
tp1217
a(I511
I501
tp1218
a(I511
I502
tp1219
a(I511
I503
tp1220
a(I511
I504
tp1221
a(I510
I499
tp1222
a(I510
I500
tp1223
a(I510
I501
tp1224
a(I510
I502
tp1225
a(I510
I503
tp1226
a(I509
I498
tp1227
a(I509
I499
tp1228
a(I509
I500
tp1229
a(I509
I501
tp1230
a(I509
I502
tp1231
a(I509
I503
tp1232
a(I508
I497
tp1233
a(I508
I498
tp1234
a(I508
I499
tp1235
a(I509
I497
tp1236
a(I508
I500
tp1237
a(I508
I501
tp1238
a(I508
I502
tp1239
a(I507
I496
tp1240
a(I507
I497
tp1241
a(I507
I498
tp1242
a(I508
I496
tp1243
a(I507
I499
tp1244
a(I507
I500
tp1245
a(I507
I501
tp1246
a(I506
I495
tp1247
a(I506
I496
tp1248
a(I506
I497
tp1249
a(I507
I495
tp1250
a(I508
I495
tp1251
a(I506
I498
tp1252
a(I506
I499
tp1253
a(I505
I494
tp1254
a(I505
I495
tp1255
a(I505
I496
tp1256
a(I506
I494
tp1257
a(I507
I494
tp1258
a(I505
I497
tp1259
a(I505
I498
tp1260
a(I508
I494
tp1261
a(I505
I493
tp1262
a(I506
I493
tp1263
a(I507
I493
tp1264
a(I508
I493
tp1265
a(I505
I492
tp1266
a(I506
I492
tp1267
a(I507
I492
tp1268
a(I508
I492
tp1269
a(I505
I491
tp1270
a(I506
I491
tp1271
a(I507
I491
tp1272
a(I508
I491
tp1273
a(I504
I490
tp1274
a(I505
I490
tp1275
a(I506
I490
tp1276
a(I503
I489
tp1277
a(I503
I490
tp1278
a(I504
I489
tp1279
a(I505
I489
tp1280
a(I506
I489
tp1281
a(I507
I489
tp1282
a(I507
I490
tp1283
a(I502
I488
tp1284
a(I502
I489
tp1285
a(I502
I490
tp1286
a(I503
I488
tp1287
a(I504
I488
tp1288
a(I505
I488
tp1289
a(I506
I488
tp1290
a(I507
I488
tp1291
a(I508
I488
tp1292
a(I508
I489
tp1293
a(I508
I490
tp1294
a(I501
I487
tp1295
a(I501
I488
tp1296
a(I501
I489
tp1297
a(I502
I487
tp1298
a(I503
I487
tp1299
a(I501
I490
tp1300
a(I504
I487
tp1301
a(I505
I487
tp1302
a(I506
I487
tp1303
a(I507
I487
tp1304
a(I508
I487
tp1305
a(I500
I487
tp1306
a(I500
I488
tp1307
a(I501
I486
tp1308
a(I502
I486
tp1309
a(I500
I489
tp1310
a(I500
I490
tp1311
a(I503
I486
tp1312
a(I504
I486
tp1313
a(I505
I486
tp1314
a(I506
I486
tp1315
a(I507
I486
tp1316
a(I508
I486
tp1317
a(I499
I487
tp1318
a(I499
I488
tp1319
a(I499
I489
tp1320
a(I499
I490
tp1321
a(I498
I487
tp1322
a(I498
I488
tp1323
a(I498
I489
tp1324
a(I498
I490
tp1325
a(I497
I487
tp1326
a(I497
I488
tp1327
a(I497
I489
tp1328
a(I497
I490
tp1329
a(I496
I487
tp1330
a(I496
I488
tp1331
a(I496
I489
tp1332
a(I496
I490
tp1333
a(I496
I491
tp1334
a(I495
I487
tp1335
a(I495
I488
tp1336
a(I495
I489
tp1337
a(I495
I490
tp1338
a(I495
I491
tp1339
a(I495
I492
tp1340
a(I496
I492
tp1341
a(I494
I487
tp1342
a(I494
I488
tp1343
a(I494
I489
tp1344
a(I494
I491
tp1345
a(I494
I492
tp1346
a(I494
I493
tp1347
a(I495
I493
tp1348
a(I496
I493
tp1349
a(I493
I487
tp1350
a(I493
I488
tp1351
a(I493
I491
tp1352
a(I493
I492
tp1353
a(I493
I493
tp1354
a(I493
I494
tp1355
a(I494
I494
tp1356
a(I495
I494
tp1357
a(I496
I494
tp1358
a(I493
I495
tp1359
a(I494
I495
tp1360
a(I495
I495
tp1361
a(I496
I495
tp1362
a(I492
I496
tp1363
a(I493
I496
tp1364
a(I494
I496
tp1365
a(I495
I496
tp1366
a(I492
I497
tp1367
a(I493
I497
tp1368
a(I494
I497
tp1369
a(I495
I497
tp1370
a(I492
I498
tp1371
a(I493
I498
tp1372
a(I494
I498
tp1373
a(I495
I498
tp1374
a(I492
I499
tp1375
a(I493
I499
tp1376
a(I494
I499
tp1377
a(I495
I499
tp1378
a(I492
I500
tp1379
a(I493
I500
tp1380
a(I494
I500
tp1381
a(I495
I500
tp1382
a(I492
I501
tp1383
a(I493
I501
tp1384
a(I494
I501
tp1385
a(I495
I501
tp1386
a(I492
I502
tp1387
a(I493
I502
tp1388
a(I494
I502
tp1389
a(I495
I502
tp1390
a(I492
I503
tp1391
a(I493
I503
tp1392
a(I494
I503
tp1393
a(I495
I503
tp1394
a(I492
I504
tp1395
a(I493
I504
tp1396
a(I494
I504
tp1397
a(I495
I504
tp1398
a(I492
I505
tp1399
a(I493
I505
tp1400
a(I494
I505
tp1401
a(I495
I505
tp1402
a(I492
I506
tp1403
a(I493
I506
tp1404
a(I494
I506
tp1405
a(I495
I506
tp1406
asg49
I524
sg50
g3
(g7
S'`\xbe\xc8_\xbf\xe0\x17@'
p1407
tp1408
Rp1409
sg54
I506
sg55
g3
(g7
S'\xa1JF9\x12\x9d\x11@'
p1410
tp1411
Rp1412
sa(dp1413
g2
g3
(g7
S'#\xf3\xbf\x1c\x04\xcc\x03@'
p1414
tp1415
Rp1416
sg13
I23
sg14
I510
sg15
g3
(g7
S'\xcb\xe3Q\xd4\x83F\x17@'
p1417
tp1418
Rp1419
sg19
I491
sg20
I32
sg21
(lp1420
(I519
I510
tp1421
a(I518
I511
tp1422
a(I519
I511
tp1423
a(I520
I511
tp1424
a(I518
I512
tp1425
a(I519
I512
tp1426
a(I520
I512
tp1427
a(I521
I512
tp1428
a(I518
I513
tp1429
a(I519
I513
tp1430
a(I520
I513
tp1431
a(I521
I513
tp1432
a(I522
I513
tp1433
a(I518
I514
tp1434
a(I519
I514
tp1435
a(I520
I514
tp1436
a(I521
I514
tp1437
a(I522
I514
tp1438
a(I519
I515
tp1439
a(I520
I515
tp1440
a(I521
I515
tp1441
a(I522
I515
tp1442
a(I523
I515
tp1443
a(I520
I516
tp1444
a(I521
I516
tp1445
a(I522
I516
tp1446
a(I523
I516
tp1447
a(I520
I517
tp1448
a(I521
I517
tp1449
a(I522
I517
tp1450
a(I523
I517
tp1451
a(I520
I518
tp1452
a(I521
I518
tp1453
a(I522
I518
tp1454
a(I523
I518
tp1455
a(I520
I519
tp1456
a(I521
I519
tp1457
a(I522
I519
tp1458
a(I523
I519
tp1459
a(I520
I520
tp1460
a(I521
I520
tp1461
a(I522
I520
tp1462
a(I523
I520
tp1463
a(I520
I521
tp1464
a(I521
I521
tp1465
a(I522
I521
tp1466
a(I523
I521
tp1467
a(I520
I522
tp1468
a(I521
I522
tp1469
a(I522
I522
tp1470
a(I523
I522
tp1471
a(I519
I523
tp1472
a(I520
I523
tp1473
a(I521
I523
tp1474
a(I522
I523
tp1475
a(I519
I524
tp1476
a(I520
I524
tp1477
a(I521
I524
tp1478
a(I522
I524
tp1479
a(I518
I525
tp1480
a(I519
I525
tp1481
a(I520
I525
tp1482
a(I521
I525
tp1483
a(I517
I526
tp1484
a(I518
I526
tp1485
a(I519
I526
tp1486
a(I520
I526
tp1487
a(I516
I526
tp1488
a(I516
I527
tp1489
a(I517
I527
tp1490
a(I518
I527
tp1491
a(I519
I527
tp1492
a(I515
I527
tp1493
a(I515
I528
tp1494
a(I516
I528
tp1495
a(I517
I528
tp1496
a(I518
I528
tp1497
a(I514
I527
tp1498
a(I514
I528
tp1499
a(I514
I529
tp1500
a(I515
I529
tp1501
a(I516
I529
tp1502
a(I517
I529
tp1503
a(I513
I527
tp1504
a(I513
I528
tp1505
a(I513
I529
tp1506
a(I513
I530
tp1507
a(I514
I530
tp1508
a(I515
I530
tp1509
a(I512
I527
tp1510
a(I512
I528
tp1511
a(I512
I529
tp1512
a(I512
I530
tp1513
a(I511
I527
tp1514
a(I511
I528
tp1515
a(I511
I529
tp1516
a(I511
I530
tp1517
a(I510
I527
tp1518
a(I510
I528
tp1519
a(I510
I529
tp1520
a(I510
I530
tp1521
a(I509
I526
tp1522
a(I509
I527
tp1523
a(I509
I528
tp1524
a(I509
I529
tp1525
a(I509
I530
tp1526
a(I508
I525
tp1527
a(I508
I526
tp1528
a(I508
I527
tp1529
a(I508
I528
tp1530
a(I508
I529
tp1531
a(I507
I524
tp1532
a(I507
I525
tp1533
a(I507
I526
tp1534
a(I508
I524
tp1535
a(I507
I527
tp1536
a(I507
I528
tp1537
a(I507
I529
tp1538
a(I506
I523
tp1539
a(I506
I524
tp1540
a(I506
I525
tp1541
a(I507
I523
tp1542
a(I506
I526
tp1543
a(I506
I527
tp1544
a(I506
I528
tp1545
a(I505
I522
tp1546
a(I505
I523
tp1547
a(I505
I524
tp1548
a(I506
I522
tp1549
a(I507
I522
tp1550
a(I505
I525
tp1551
a(I505
I526
tp1552
a(I505
I527
tp1553
a(I504
I521
tp1554
a(I504
I522
tp1555
a(I504
I523
tp1556
a(I505
I521
tp1557
a(I506
I521
tp1558
a(I504
I524
tp1559
a(I504
I525
tp1560
a(I507
I521
tp1561
a(I504
I520
tp1562
a(I505
I520
tp1563
a(I506
I520
tp1564
a(I507
I520
tp1565
a(I504
I519
tp1566
a(I505
I519
tp1567
a(I506
I519
tp1568
a(I507
I519
tp1569
a(I504
I518
tp1570
a(I505
I518
tp1571
a(I506
I518
tp1572
a(I507
I518
tp1573
a(I503
I517
tp1574
a(I504
I517
tp1575
a(I505
I517
tp1576
a(I502
I516
tp1577
a(I502
I517
tp1578
a(I503
I516
tp1579
a(I504
I516
tp1580
a(I505
I516
tp1581
a(I506
I516
tp1582
a(I506
I517
tp1583
a(I501
I515
tp1584
a(I501
I516
tp1585
a(I501
I517
tp1586
a(I502
I515
tp1587
a(I503
I515
tp1588
a(I504
I515
tp1589
a(I505
I515
tp1590
a(I506
I515
tp1591
a(I507
I515
tp1592
a(I507
I516
tp1593
a(I507
I517
tp1594
a(I500
I514
tp1595
a(I500
I515
tp1596
a(I500
I516
tp1597
a(I501
I514
tp1598
a(I502
I514
tp1599
a(I500
I517
tp1600
a(I503
I514
tp1601
a(I504
I514
tp1602
a(I505
I514
tp1603
a(I506
I514
tp1604
a(I507
I514
tp1605
a(I499
I514
tp1606
a(I499
I515
tp1607
a(I501
I513
tp1608
a(I499
I516
tp1609
a(I499
I517
tp1610
a(I502
I513
tp1611
a(I503
I513
tp1612
a(I504
I513
tp1613
a(I505
I513
tp1614
a(I506
I513
tp1615
a(I507
I513
tp1616
a(I498
I514
tp1617
a(I498
I515
tp1618
a(I498
I516
tp1619
a(I498
I517
tp1620
a(I497
I514
tp1621
a(I497
I515
tp1622
a(I497
I516
tp1623
a(I497
I517
tp1624
a(I496
I514
tp1625
a(I496
I515
tp1626
a(I496
I516
tp1627
a(I496
I517
tp1628
a(I495
I514
tp1629
a(I495
I515
tp1630
a(I495
I516
tp1631
a(I495
I517
tp1632
a(I495
I518
tp1633
a(I494
I514
tp1634
a(I494
I515
tp1635
a(I494
I516
tp1636
a(I494
I517
tp1637
a(I494
I518
tp1638
a(I494
I519
tp1639
a(I495
I519
tp1640
a(I493
I514
tp1641
a(I493
I515
tp1642
a(I493
I516
tp1643
a(I493
I518
tp1644
a(I493
I519
tp1645
a(I493
I520
tp1646
a(I494
I520
tp1647
a(I492
I514
tp1648
a(I492
I515
tp1649
a(I492
I518
tp1650
a(I492
I519
tp1651
a(I492
I520
tp1652
a(I492
I521
tp1653
a(I493
I521
tp1654
a(I494
I521
tp1655
a(I491
I519
tp1656
a(I491
I520
tp1657
a(I491
I521
tp1658
a(I491
I522
tp1659
a(I492
I522
tp1660
a(I493
I522
tp1661
a(I494
I522
tp1662
a(I491
I523
tp1663
a(I492
I523
tp1664
a(I493
I523
tp1665
a(I494
I523
tp1666
a(I491
I524
tp1667
a(I492
I524
tp1668
a(I493
I524
tp1669
a(I494
I524
tp1670
a(I491
I525
tp1671
a(I492
I525
tp1672
a(I493
I525
tp1673
a(I494
I525
tp1674
a(I491
I526
tp1675
a(I492
I526
tp1676
a(I493
I526
tp1677
a(I494
I526
tp1678
a(I491
I527
tp1679
a(I492
I527
tp1680
a(I493
I527
tp1681
a(I494
I527
tp1682
a(I491
I528
tp1683
a(I492
I528
tp1684
a(I493
I528
tp1685
a(I494
I528
tp1686
a(I491
I529
tp1687
a(I492
I529
tp1688
a(I493
I529
tp1689
a(I494
I529
tp1690
a(I491
I530
tp1691
a(I492
I530
tp1692
a(I493
I530
tp1693
a(I494
I530
tp1694
a(I491
I531
tp1695
a(I492
I531
tp1696
a(I493
I531
tp1697
a(I494
I531
tp1698
a(I491
I532
tp1699
a(I492
I532
tp1700
a(I493
I532
tp1701
a(I494
I532
tp1702
a(I491
I533
tp1703
a(I492
I533
tp1704
a(I493
I533
tp1705
asg49
I523
sg50
g3
(g7
S'\xbf\x0e&-\xb3~\x18@'
p1706
tp1707
Rp1708
sg54
I533
sg55
g3
(g7
S'\xd8P^Cy\r\x11@'
p1709
tp1710
Rp1711
sa(dp1712
g2
g3
(g7
S'\xee?\xdee\xa6G\x0c@'
p1713
tp1714
Rp1715
sg13
I21
sg14
I536
sg15
g3
(g7
S'\xe7\xff\x8b{\x8a\xe6\x17@'
p1716
tp1717
Rp1718
sg19
I497
sg20
I31
sg21
(lp1719
(I519
I536
tp1720
a(I518
I537
tp1721
a(I519
I537
tp1722
a(I520
I536
tp1723
a(I520
I537
tp1724
a(I517
I537
tp1725
a(I517
I538
tp1726
a(I518
I538
tp1727
a(I519
I538
tp1728
a(I520
I538
tp1729
a(I521
I536
tp1730
a(I521
I537
tp1731
a(I521
I538
tp1732
a(I516
I537
tp1733
a(I516
I538
tp1734
a(I516
I539
tp1735
a(I517
I539
tp1736
a(I518
I539
tp1737
a(I519
I539
tp1738
a(I520
I539
tp1739
a(I521
I539
tp1740
a(I522
I536
tp1741
a(I522
I537
tp1742
a(I522
I538
tp1743
a(I515
I537
tp1744
a(I515
I538
tp1745
a(I515
I539
tp1746
a(I515
I540
tp1747
a(I514
I537
tp1748
a(I514
I538
tp1749
a(I514
I539
tp1750
a(I514
I540
tp1751
a(I513
I537
tp1752
a(I513
I538
tp1753
a(I513
I539
tp1754
a(I513
I540
tp1755
a(I512
I537
tp1756
a(I512
I538
tp1757
a(I512
I539
tp1758
a(I512
I540
tp1759
a(I512
I541
tp1760
a(I511
I538
tp1761
a(I511
I539
tp1762
a(I511
I540
tp1763
a(I511
I541
tp1764
a(I511
I542
tp1765
a(I510
I538
tp1766
a(I510
I539
tp1767
a(I510
I540
tp1768
a(I510
I541
tp1769
a(I510
I542
tp1770
a(I510
I543
tp1771
a(I511
I543
tp1772
a(I509
I538
tp1773
a(I509
I539
tp1774
a(I509
I540
tp1775
a(I509
I541
tp1776
a(I509
I542
tp1777
a(I509
I543
tp1778
a(I509
I544
tp1779
a(I510
I544
tp1780
a(I511
I544
tp1781
a(I508
I538
tp1782
a(I508
I539
tp1783
a(I508
I540
tp1784
a(I508
I541
tp1785
a(I508
I542
tp1786
a(I508
I543
tp1787
a(I508
I544
tp1788
a(I508
I545
tp1789
a(I509
I545
tp1790
a(I510
I545
tp1791
a(I511
I545
tp1792
a(I512
I545
tp1793
a(I507
I538
tp1794
a(I507
I539
tp1795
a(I507
I540
tp1796
a(I507
I541
tp1797
a(I507
I544
tp1798
a(I507
I545
tp1799
a(I507
I546
tp1800
a(I508
I546
tp1801
a(I509
I546
tp1802
a(I510
I546
tp1803
a(I511
I546
tp1804
a(I512
I546
tp1805
a(I513
I546
tp1806
a(I506
I540
tp1807
a(I506
I541
tp1808
a(I506
I545
tp1809
a(I506
I546
tp1810
a(I506
I547
tp1811
a(I507
I547
tp1812
a(I508
I547
tp1813
a(I509
I547
tp1814
a(I510
I547
tp1815
a(I511
I547
tp1816
a(I512
I547
tp1817
a(I513
I547
tp1818
a(I514
I547
tp1819
a(I505
I539
tp1820
a(I505
I540
tp1821
a(I506
I539
tp1822
a(I505
I546
tp1823
a(I505
I547
tp1824
a(I505
I548
tp1825
a(I511
I548
tp1826
a(I512
I548
tp1827
a(I513
I548
tp1828
a(I514
I548
tp1829
a(I515
I547
tp1830
a(I515
I548
tp1831
a(I504
I538
tp1832
a(I504
I539
tp1833
a(I504
I540
tp1834
a(I505
I538
tp1835
a(I506
I538
tp1836
a(I504
I541
tp1837
a(I504
I547
tp1838
a(I504
I548
tp1839
a(I504
I549
tp1840
a(I513
I549
tp1841
a(I514
I549
tp1842
a(I515
I549
tp1843
a(I516
I548
tp1844
a(I516
I549
tp1845
a(I503
I538
tp1846
a(I503
I539
tp1847
a(I503
I540
tp1848
a(I503
I541
tp1849
a(I503
I548
tp1850
a(I503
I549
tp1851
a(I503
I550
tp1852
a(I515
I550
tp1853
a(I516
I550
tp1854
a(I517
I548
tp1855
a(I517
I549
tp1856
a(I517
I550
tp1857
a(I502
I538
tp1858
a(I502
I539
tp1859
a(I502
I540
tp1860
a(I502
I541
tp1861
a(I502
I549
tp1862
a(I502
I550
tp1863
a(I502
I551
tp1864
a(I517
I551
tp1865
a(I518
I549
tp1866
a(I518
I550
tp1867
a(I518
I551
tp1868
a(I501
I539
tp1869
a(I501
I540
tp1870
a(I501
I541
tp1871
a(I501
I550
tp1872
a(I501
I551
tp1873
a(I501
I552
tp1874
a(I519
I550
tp1875
a(I519
I549
tp1876
a(I519
I551
tp1877
a(I519
I552
tp1878
a(I500
I539
tp1879
a(I500
I540
tp1880
a(I500
I541
tp1881
a(I500
I551
tp1882
a(I500
I552
tp1883
a(I500
I553
tp1884
a(I520
I550
tp1885
a(I520
I551
tp1886
a(I520
I548
tp1887
a(I520
I552
tp1888
a(I499
I539
tp1889
a(I499
I540
tp1890
a(I499
I541
tp1891
a(I499
I552
tp1892
a(I499
I553
tp1893
a(I499
I554
tp1894
a(I521
I550
tp1895
a(I521
I551
tp1896
a(I521
I552
tp1897
a(I521
I547
tp1898
a(I521
I553
tp1899
a(I498
I541
tp1900
a(I498
I552
tp1901
a(I498
I553
tp1902
a(I498
I554
tp1903
a(I498
I555
tp1904
a(I522
I546
tp1905
a(I498
I540
tp1906
a(I497
I555
tp1907
a(I497
I556
tp1908
a(I523
I545
tp1909
a(I497
I557
tp1910
a(I524
I544
tp1911
a(I525
I543
tp1912
a(I526
I542
tp1913
a(I527
I541
tp1914
a(I528
I540
tp1915
asg49
I528
sg50
g3
(g7
S'C<\n\xa0\x03\xfe(@'
p1916
tp1917
Rp1918
sg54
I557
sg55
g3
(g7
S'\x8d\xf5\xa1\xb1>4\x11@'
p1919
tp1920
Rp1921
sa(dp1922
g2
g3
(g7
S'\xae\x12.-Zj\x08@'
p1923
tp1924
Rp1925
sg13
I17
sg14
I562
sg15
g3
(g7
S'\x8c\xe7\x19\x83\x87b#@'
p1926
tp1927
Rp1928
sg19
I496
sg20
I25
sg21
(lp1929
(I519
I562
tp1930
a(I518
I563
tp1931
a(I519
I563
tp1932
a(I520
I562
tp1933
a(I520
I563
tp1934
a(I517
I563
tp1935
a(I517
I564
tp1936
a(I518
I564
tp1937
a(I519
I564
tp1938
a(I520
I564
tp1939
a(I521
I562
tp1940
a(I521
I563
tp1941
a(I516
I563
tp1942
a(I516
I564
tp1943
a(I516
I565
tp1944
a(I517
I565
tp1945
a(I518
I565
tp1946
a(I515
I564
tp1947
a(I515
I565
tp1948
a(I515
I566
tp1949
a(I514
I564
tp1950
a(I514
I566
tp1951
a(I514
I567
tp1952
a(I515
I567
tp1953
a(I513
I565
tp1954
a(I513
I566
tp1955
a(I513
I567
tp1956
a(I514
I565
tp1957
a(I514
I568
tp1958
a(I512
I566
tp1959
a(I513
I564
tp1960
a(I512
I565
tp1961
a(I512
I567
tp1962
a(I512
I568
tp1963
a(I513
I568
tp1964
a(I511
I568
tp1965
a(I512
I569
tp1966
a(I513
I569
tp1967
a(I512
I570
tp1968
a(I513
I570
tp1969
a(I514
I569
tp1970
a(I514
I570
tp1971
a(I512
I571
tp1972
a(I513
I571
tp1973
a(I514
I571
tp1974
a(I512
I572
tp1975
a(I513
I572
tp1976
a(I514
I572
tp1977
a(I512
I573
tp1978
a(I513
I573
tp1979
a(I514
I573
tp1980
a(I512
I574
tp1981
a(I513
I574
tp1982
a(I514
I574
tp1983
a(I512
I575
tp1984
a(I513
I575
tp1985
a(I514
I575
tp1986
a(I511
I576
tp1987
a(I512
I576
tp1988
a(I513
I576
tp1989
a(I510
I576
tp1990
a(I510
I577
tp1991
a(I511
I577
tp1992
a(I512
I577
tp1993
a(I513
I577
tp1994
a(I514
I576
tp1995
a(I514
I577
tp1996
a(I509
I576
tp1997
a(I509
I577
tp1998
a(I509
I578
tp1999
a(I510
I578
tp2000
a(I511
I578
tp2001
a(I512
I578
tp2002
a(I513
I578
tp2003
a(I514
I578
tp2004
a(I515
I577
tp2005
a(I515
I578
tp2006
a(I508
I576
tp2007
a(I508
I577
tp2008
a(I508
I578
tp2009
a(I513
I579
tp2010
a(I514
I579
tp2011
a(I515
I579
tp2012
a(I516
I577
tp2013
a(I516
I578
tp2014
a(I516
I579
tp2015
a(I507
I576
tp2016
a(I507
I577
tp2017
a(I517
I577
tp2018
a(I517
I578
tp2019
a(I517
I579
tp2020
a(I506
I575
tp2021
a(I506
I576
tp2022
a(I506
I577
tp2023
a(I518
I577
tp2024
a(I518
I578
tp2025
a(I518
I579
tp2026
a(I505
I575
tp2027
a(I505
I576
tp2028
a(I505
I577
tp2029
a(I519
I577
tp2030
a(I519
I578
tp2031
a(I519
I579
tp2032
a(I504
I575
tp2033
a(I504
I576
tp2034
a(I504
I577
tp2035
a(I503
I575
tp2036
a(I503
I576
tp2037
a(I503
I577
tp2038
a(I502
I575
tp2039
a(I502
I576
tp2040
a(I502
I577
tp2041
a(I501
I574
tp2042
a(I501
I575
tp2043
a(I501
I576
tp2044
a(I501
I577
tp2045
a(I500
I573
tp2046
a(I500
I574
tp2047
a(I500
I575
tp2048
a(I501
I573
tp2049
a(I500
I576
tp2050
a(I499
I572
tp2051
a(I499
I573
tp2052
a(I499
I574
tp2053
a(I500
I572
tp2054
a(I501
I572
tp2055
a(I499
I575
tp2056
a(I499
I576
tp2057
a(I498
I571
tp2058
a(I498
I572
tp2059
a(I498
I573
tp2060
a(I499
I571
tp2061
a(I500
I571
tp2062
a(I498
I574
tp2063
a(I498
I575
tp2064
a(I501
I571
tp2065
a(I502
I571
tp2066
a(I498
I576
tp2067
a(I497
I571
tp2068
a(I497
I572
tp2069
a(I498
I570
tp2070
a(I499
I570
tp2071
a(I497
I573
tp2072
a(I497
I574
tp2073
a(I500
I570
tp2074
a(I501
I570
tp2075
a(I497
I575
tp2076
a(I497
I576
tp2077
a(I502
I570
tp2078
a(I503
I570
tp2079
a(I496
I574
tp2080
a(I496
I575
tp2081
a(I501
I569
tp2082
a(I502
I569
tp2083
a(I503
I569
tp2084
a(I504
I569
tp2085
a(I504
I570
tp2086
a(I503
I568
tp2087
a(I504
I568
tp2088
a(I505
I568
tp2089
a(I505
I569
tp2090
a(I505
I570
tp2091
a(I506
I567
tp2092
a(I506
I568
tp2093
a(I506
I569
tp2094
a(I507
I567
tp2095
a(I507
I568
tp2096
a(I507
I569
tp2097
a(I508
I567
tp2098
a(I508
I568
tp2099
a(I509
I566
tp2100
a(I509
I567
tp2101
a(I509
I568
tp2102
a(I510
I566
tp2103
a(I510
I567
tp2104
a(I510
I568
tp2105
asg49
I521
sg50
g3
(g7
S'\xa3\x8b.\xba\xe8\xa0"@'
p2106
tp2107
Rp2108
sg54
I579
sg55
g3
(g7
S'\x00\x00\x00\x00\x00\xc0\x11@'
p2109
tp2110
Rp2111
sa(dp2112
g2
g3
(g7
S'\xfd\xc81\xb3D\xbe\xfb?'
p2113
tp2114
Rp2115
sg13
I15
sg14
I597
sg15
g3
(g7
S'v\t\xfd\x1d\xc9\x88%@'
p2116
tp2117
Rp2118
sg19
I484
sg20
I23
sg21
(lp2119
(I493
I597
tp2120
a(I492
I598
tp2121
a(I493
I598
tp2122
a(I494
I597
tp2123
a(I491
I599
tp2124
a(I492
I599
tp2125
a(I490
I600
tp2126
a(I491
I600
tp2127
a(I489
I601
tp2128
a(I490
I601
tp2129
a(I488
I602
tp2130
a(I489
I602
tp2131
a(I487
I603
tp2132
a(I488
I603
tp2133
a(I489
I603
tp2134
a(I486
I604
tp2135
a(I487
I604
tp2136
a(I488
I604
tp2137
a(I489
I604
tp2138
a(I485
I605
tp2139
a(I486
I605
tp2140
a(I487
I605
tp2141
a(I488
I605
tp2142
a(I489
I605
tp2143
a(I484
I606
tp2144
a(I485
I606
tp2145
a(I486
I606
tp2146
a(I487
I606
tp2147
a(I488
I606
tp2148
a(I489
I606
tp2149
a(I490
I606
tp2150
a(I484
I607
tp2151
a(I485
I607
tp2152
a(I486
I607
tp2153
a(I487
I607
tp2154
a(I488
I607
tp2155
a(I489
I607
tp2156
a(I490
I607
tp2157
a(I491
I606
tp2158
a(I491
I607
tp2159
a(I484
I608
tp2160
a(I485
I608
tp2161
a(I486
I608
tp2162
a(I487
I608
tp2163
a(I488
I608
tp2164
a(I489
I608
tp2165
a(I490
I608
tp2166
a(I492
I606
tp2167
a(I492
I607
tp2168
a(I491
I609
tp2169
a(I493
I606
tp2170
a(I493
I607
tp2171
a(I492
I610
tp2172
a(I494
I605
tp2173
a(I494
I606
tp2174
a(I494
I607
tp2175
a(I493
I611
tp2176
a(I495
I605
tp2177
a(I495
I606
tp2178
a(I495
I607
tp2179
a(I494
I612
tp2180
a(I496
I605
tp2181
a(I496
I606
tp2182
a(I496
I607
tp2183
a(I497
I605
tp2184
a(I497
I606
tp2185
a(I497
I607
tp2186
a(I498
I605
tp2187
a(I498
I606
tp2188
a(I498
I607
tp2189
a(I499
I605
tp2190
a(I499
I606
tp2191
a(I499
I607
tp2192
a(I500
I605
tp2193
a(I500
I606
tp2194
a(I501
I605
tp2195
a(I501
I606
tp2196
a(I502
I605
tp2197
a(I502
I606
tp2198
a(I503
I604
tp2199
a(I503
I605
tp2200
a(I503
I606
tp2201
a(I504
I604
tp2202
a(I504
I605
tp2203
a(I504
I606
tp2204
a(I505
I604
tp2205
a(I505
I605
tp2206
a(I505
I606
tp2207
a(I506
I604
tp2208
a(I506
I605
tp2209
a(I506
I606
tp2210
a(I507
I604
tp2211
a(I507
I605
tp2212
asg49
I507
sg50
g3
(g7
S'\xddo\xc7>\x7f\r\x08@'
p2213
tp2214
Rp2215
sg54
I612
sg55
g3
(g7
S'\x84\x10B\x08!\x84\x08@'
p2216
tp2217
Rp2218
sa(dp2219
g2
g3
(g7
S'r`\x17\xbe\x89=\xfd?'
p2220
tp2221
Rp2222
sg13
I14
sg14
I614
sg15
g3
(g7
S"\xe7\x04Fgh\xa4'@"
p2223
tp2224
Rp2225
sg19
I482
sg20
I24
sg21
(lp2226
(I488
I614
tp2227
a(I487
I615
tp2228
a(I488
I615
tp2229
a(I489
I614
tp2230
a(I489
I615
tp2231
a(I486
I616
tp2232
a(I487
I616
tp2233
a(I488
I616
tp2234
a(I489
I616
tp2235
a(I490
I614
tp2236
a(I490
I615
tp2237
a(I490
I616
tp2238
a(I485
I617
tp2239
a(I486
I617
tp2240
a(I487
I617
tp2241
a(I491
I614
tp2242
a(I491
I615
tp2243
a(I491
I616
tp2244
a(I484
I618
tp2245
a(I485
I618
tp2246
a(I486
I618
tp2247
a(I492
I614
tp2248
a(I492
I615
tp2249
a(I492
I616
tp2250
a(I484
I619
tp2251
a(I485
I619
tp2252
a(I493
I614
tp2253
a(I493
I615
tp2254
a(I493
I616
tp2255
a(I493
I617
tp2256
a(I483
I620
tp2257
a(I484
I620
tp2258
a(I485
I620
tp2259
a(I494
I614
tp2260
a(I494
I615
tp2261
a(I494
I616
tp2262
a(I494
I617
tp2263
a(I494
I618
tp2264
a(I483
I621
tp2265
a(I484
I621
tp2266
a(I485
I621
tp2267
a(I495
I615
tp2268
a(I495
I616
tp2269
a(I495
I617
tp2270
a(I495
I618
tp2271
a(I494
I619
tp2272
a(I495
I619
tp2273
a(I482
I622
tp2274
a(I483
I622
tp2275
a(I484
I622
tp2276
a(I485
I622
tp2277
a(I496
I616
tp2278
a(I496
I617
tp2279
a(I496
I618
tp2280
a(I496
I619
tp2281
a(I494
I620
tp2282
a(I495
I620
tp2283
a(I496
I620
tp2284
a(I482
I623
tp2285
a(I483
I623
tp2286
a(I484
I623
tp2287
a(I485
I623
tp2288
a(I494
I621
tp2289
a(I495
I621
tp2290
a(I496
I621
tp2291
a(I482
I624
tp2292
a(I483
I624
tp2293
a(I484
I624
tp2294
a(I485
I624
tp2295
a(I494
I622
tp2296
a(I495
I622
tp2297
a(I496
I622
tp2298
a(I497
I622
tp2299
a(I483
I625
tp2300
a(I484
I625
tp2301
a(I485
I625
tp2302
a(I486
I625
tp2303
a(I494
I623
tp2304
a(I495
I623
tp2305
a(I496
I623
tp2306
a(I497
I623
tp2307
a(I498
I622
tp2308
a(I498
I623
tp2309
a(I484
I626
tp2310
a(I485
I626
tp2311
a(I486
I626
tp2312
a(I487
I626
tp2313
a(I494
I624
tp2314
a(I495
I624
tp2315
a(I496
I624
tp2316
a(I497
I624
tp2317
a(I498
I624
tp2318
a(I499
I622
tp2319
a(I499
I623
tp2320
a(I499
I624
tp2321
a(I484
I627
tp2322
a(I485
I627
tp2323
a(I486
I627
tp2324
a(I487
I627
tp2325
a(I488
I626
tp2326
a(I488
I627
tp2327
a(I493
I624
tp2328
a(I493
I625
tp2329
a(I494
I625
tp2330
a(I495
I625
tp2331
a(I497
I625
tp2332
a(I498
I625
tp2333
a(I500
I622
tp2334
a(I500
I623
tp2335
a(I486
I628
tp2336
a(I487
I628
tp2337
a(I488
I628
tp2338
a(I489
I626
tp2339
a(I489
I627
tp2340
a(I489
I628
tp2341
a(I492
I625
tp2342
a(I492
I626
tp2343
a(I493
I626
tp2344
a(I494
I626
tp2345
a(I495
I626
tp2346
a(I501
I621
tp2347
a(I501
I622
tp2348
a(I501
I623
tp2349
a(I490
I626
tp2350
a(I490
I627
tp2351
a(I490
I628
tp2352
a(I491
I626
tp2353
a(I491
I627
tp2354
a(I492
I627
tp2355
a(I493
I627
tp2356
a(I494
I627
tp2357
a(I502
I621
tp2358
a(I502
I622
tp2359
a(I503
I620
tp2360
a(I503
I621
tp2361
a(I504
I619
tp2362
a(I504
I620
tp2363
a(I504
I621
tp2364
a(I505
I618
tp2365
a(I505
I619
tp2366
a(I505
I620
tp2367
a(I506
I617
tp2368
a(I506
I618
tp2369
a(I506
I619
tp2370
asg49
I506
sg50
g3
(g7
S'\x00\x00\x00\x00\x00\xb8\n@'
p2371
tp2372
Rp2373
sg54
I628
sg55
g3
(g7
S'\xab\xaa\xaa\xaa\xaa*\x08@'
p2374
tp2375
Rp2376
sa(dp2377
g2
g3
(g7
S'\x0eP\xae\x81\xa3D\xfd?'
p2378
tp2379
Rp2380
sg13
I13
sg14
I634
sg15
g3
(g7
S'J\tg\xc9\x14\x88%@'
p2381
tp2382
Rp2383
sg19
I478
sg20
I26
sg21
(lp2384
(I482
I634
tp2385
a(I481
I635
tp2386
a(I482
I635
tp2387
a(I483
I634
tp2388
a(I483
I635
tp2389
a(I481
I636
tp2390
a(I482
I636
tp2391
a(I483
I636
tp2392
a(I481
I637
tp2393
a(I482
I637
tp2394
a(I483
I637
tp2395
a(I481
I638
tp2396
a(I482
I638
tp2397
a(I483
I638
tp2398
a(I481
I639
tp2399
a(I482
I639
tp2400
a(I483
I639
tp2401
a(I481
I640
tp2402
a(I482
I640
tp2403
a(I483
I640
tp2404
a(I481
I641
tp2405
a(I482
I641
tp2406
a(I483
I641
tp2407
a(I480
I642
tp2408
a(I481
I642
tp2409
a(I482
I642
tp2410
a(I483
I642
tp2411
a(I479
I641
tp2412
a(I480
I643
tp2413
a(I481
I643
tp2414
a(I482
I643
tp2415
a(I483
I643
tp2416
a(I484
I643
tp2417
a(I478
I640
tp2418
a(I480
I644
tp2419
a(I481
I644
tp2420
a(I482
I644
tp2421
a(I483
I644
tp2422
a(I484
I644
tp2423
a(I485
I643
tp2424
a(I485
I644
tp2425
a(I480
I645
tp2426
a(I481
I645
tp2427
a(I482
I645
tp2428
a(I483
I645
tp2429
a(I484
I645
tp2430
a(I485
I645
tp2431
a(I486
I643
tp2432
a(I486
I644
tp2433
a(I486
I645
tp2434
a(I480
I646
tp2435
a(I481
I646
tp2436
a(I482
I646
tp2437
a(I483
I646
tp2438
a(I484
I646
tp2439
a(I487
I643
tp2440
a(I487
I644
tp2441
a(I487
I645
tp2442
a(I480
I647
tp2443
a(I481
I647
tp2444
a(I482
I647
tp2445
a(I488
I642
tp2446
a(I488
I643
tp2447
a(I488
I644
tp2448
a(I487
I641
tp2449
a(I489
I643
tp2450
a(I486
I640
tp2451
a(I490
I643
tp2452
a(I485
I639
tp2453
a(I490
I642
tp2454
a(I491
I642
tp2455
a(I490
I641
tp2456
a(I491
I641
tp2457
a(I492
I641
tp2458
a(I492
I642
tp2459
a(I492
I640
tp2460
a(I493
I640
tp2461
a(I493
I641
tp2462
a(I494
I640
tp2463
a(I494
I641
tp2464
a(I495
I639
tp2465
a(I495
I640
tp2466
a(I496
I639
tp2467
a(I496
I640
tp2468
a(I497
I638
tp2469
a(I497
I639
tp2470
a(I498
I637
tp2471
a(I498
I638
tp2472
a(I498
I639
tp2473
a(I499
I637
tp2474
a(I499
I638
tp2475
a(I499
I639
tp2476
a(I500
I636
tp2477
a(I500
I637
tp2478
a(I500
I638
tp2479
a(I500
I640
tp2480
a(I501
I637
tp2481
a(I501
I641
tp2482
a(I502
I637
tp2483
a(I502
I642
tp2484
a(I502
I636
tp2485
a(I503
I636
tp2486
a(I503
I643
tp2487
a(I502
I635
tp2488
a(I503
I635
tp2489
a(I504
I635
tp2490
a(I504
I636
tp2491
a(I504
I644
tp2492
a(I504
I634
tp2493
asg49
I504
sg50
g3
(g7
S'\x1b\x896\x95\xfb\xc4\n@'
p2494
tp2495
Rp2496
sg54
I647
sg55
g3
(g7
S'1\xb7:#\x15s\x0b@'
p2497
tp2498
Rp2499
sa(dp2500
g2
g3
(g7
S'A\x10*\x9dE\xb7\x04@'
p2501
tp2502
Rp2503
sg13
I12
sg14
I642
sg15
g3
(g7
S'\x1d\xd1\x1f%e\t @'
p2504
tp2505
Rp2506
sg19
I77
sg20
I14
sg21
(lp2507
(I77
I642
tp2508
a(I78
I642
tp2509
a(I77
I643
tp2510
a(I78
I643
tp2511
a(I79
I643
tp2512
a(I77
I644
tp2513
a(I78
I644
tp2514
a(I79
I644
tp2515
a(I80
I643
tp2516
a(I80
I644
tp2517
a(I77
I645
tp2518
a(I78
I645
tp2519
a(I79
I645
tp2520
a(I80
I645
tp2521
a(I81
I644
tp2522
a(I81
I645
tp2523
a(I78
I646
tp2524
a(I79
I646
tp2525
a(I80
I646
tp2526
a(I81
I646
tp2527
a(I82
I644
tp2528
a(I82
I645
tp2529
a(I82
I646
tp2530
a(I78
I647
tp2531
a(I79
I647
tp2532
a(I80
I647
tp2533
a(I81
I647
tp2534
a(I82
I647
tp2535
a(I83
I644
tp2536
a(I83
I645
tp2537
a(I83
I646
tp2538
a(I83
I647
tp2539
a(I78
I648
tp2540
a(I79
I648
tp2541
a(I80
I648
tp2542
a(I81
I648
tp2543
a(I82
I648
tp2544
a(I83
I648
tp2545
a(I84
I647
tp2546
a(I78
I649
tp2547
a(I80
I649
tp2548
a(I82
I649
tp2549
a(I84
I649
tp2550
a(I85
I646
tp2551
a(I77
I650
tp2552
a(I78
I650
tp2553
a(I85
I650
tp2554
a(I84
I645
tp2555
a(I85
I645
tp2556
a(I86
I646
tp2557
a(I77
I651
tp2558
a(I78
I651
tp2559
a(I85
I651
tp2560
a(I86
I650
tp2561
a(I86
I651
tp2562
a(I87
I646
tp2563
a(I77
I652
tp2564
a(I78
I652
tp2565
a(I84
I652
tp2566
a(I87
I649
tp2567
a(I87
I652
tp2568
a(I88
I647
tp2569
a(I78
I653
tp2570
a(I79
I653
tp2571
a(I84
I653
tp2572
a(I85
I653
tp2573
a(I86
I648
tp2574
a(I88
I648
tp2575
a(I88
I650
tp2576
a(I86
I653
tp2577
a(I88
I651
tp2578
a(I89
I647
tp2579
a(I78
I654
tp2580
a(I79
I654
tp2581
a(I80
I653
tp2582
a(I80
I654
tp2583
a(I89
I650
tp2584
a(I89
I651
tp2585
a(I90
I647
tp2586
a(I81
I652
tp2587
a(I81
I653
tp2588
a(I81
I654
tp2589
a(I90
I649
tp2590
a(I82
I653
tp2591
a(I82
I654
tp2592
a(I91
I648
tp2593
a(I83
I653
tp2594
a(I83
I654
tp2595
asg49
I91
sg50
g3
(g7
S'i,\x83Ra\xd2\x1a@'
p2596
tp2597
Rp2598
sg54
I654
sg55
g3
(g7
S'\xe9\xa2\x8b.\xbah\x11@'
p2599
tp2600
Rp2601
sa(dp2602
g2
g3
(g7
S"\r'\xdc\xdb\xce\xf0\xdd?"
p2603
tp2604
Rp2605
sg13
I15
sg14
I703
sg15
g3
(g7
S'\x0c\xc5}6\xef\xa7\x18@'
p2606
tp2607
Rp2608
sg19
I59
sg20
I17
sg21
(lp2609
(I74
I703
tp2610
a(I73
I704
tp2611
a(I74
I704
tp2612
a(I75
I703
tp2613
a(I75
I704
tp2614
a(I72
I705
tp2615
a(I73
I705
tp2616
a(I74
I705
tp2617
a(I75
I705
tp2618
a(I76
I703
tp2619
a(I76
I704
tp2620
a(I71
I706
tp2621
a(I72
I706
tp2622
a(I70
I707
tp2623
a(I71
I707
tp2624
a(I69
I708
tp2625
a(I70
I708
tp2626
a(I68
I709
tp2627
a(I69
I709
tp2628
a(I67
I710
tp2629
a(I68
I710
tp2630
a(I66
I710
tp2631
a(I66
I711
tp2632
a(I65
I711
tp2633
a(I65
I712
tp2634
a(I64
I713
tp2635
a(I63
I714
tp2636
a(I62
I715
tp2637
a(I61
I716
tp2638
a(I60
I717
tp2639
a(I61
I717
tp2640
a(I59
I718
tp2641
a(I60
I718
tp2642
a(I62
I718
tp2643
asg49
I76
sg50
g3
(g7
S'\xab!\x9a\x12\x8b\x03\xcc?'
p2644
tp2645
Rp2646
sg54
I718
sg55
g3
(g7
S'------\xf5?'
p2647
tp2648
Rp2649
sa(dp2650
g2
g3
(g7
S'\xa2\xd7-O\x97@\xf2?'
p2651
tp2652
Rp2653
sg13
I22
sg14
I783
sg15
g3
(g7
S'\xda_K\xf9\x84U\x06@'
p2654
tp2655
Rp2656
sg19
I261
sg20
I31
sg21
(lp2657
(I282
I783
tp2658
a(I281
I784
tp2659
a(I282
I784
tp2660
a(I283
I783
tp2661
a(I283
I784
tp2662
a(I280
I784
tp2663
a(I280
I785
tp2664
a(I281
I785
tp2665
a(I282
I785
tp2666
a(I282
I786
tp2667
a(I283
I786
tp2668
a(I281
I787
tp2669
a(I283
I787
tp2670
a(I282
I787
tp2671
a(I284
I786
tp2672
a(I280
I787
tp2673
a(I280
I788
tp2674
a(I281
I788
tp2675
a(I282
I788
tp2676
a(I285
I786
tp2677
a(I281
I789
tp2678
a(I282
I789
tp2679
a(I286
I786
tp2680
a(I280
I790
tp2681
a(I281
I790
tp2682
a(I282
I790
tp2683
a(I287
I786
tp2684
a(I280
I791
tp2685
a(I288
I787
tp2686
a(I279
I792
tp2687
a(I280
I792
tp2688
a(I289
I786
tp2689
a(I289
I787
tp2690
a(I278
I793
tp2691
a(I279
I793
tp2692
a(I280
I793
tp2693
a(I290
I786
tp2694
a(I290
I787
tp2695
a(I277
I793
tp2696
a(I277
I794
tp2697
a(I278
I794
tp2698
a(I279
I794
tp2699
a(I291
I786
tp2700
a(I291
I787
tp2701
a(I276
I793
tp2702
a(I276
I794
tp2703
a(I276
I795
tp2704
a(I277
I795
tp2705
a(I278
I795
tp2706
a(I279
I795
tp2707
a(I292
I786
tp2708
a(I292
I787
tp2709
a(I275
I794
tp2710
a(I275
I795
tp2711
a(I275
I796
tp2712
a(I276
I796
tp2713
a(I277
I796
tp2714
a(I279
I796
tp2715
a(I274
I795
tp2716
a(I274
I796
tp2717
a(I274
I797
tp2718
a(I275
I797
tp2719
a(I276
I797
tp2720
a(I277
I797
tp2721
a(I273
I798
tp2722
a(I274
I798
tp2723
a(I275
I798
tp2724
a(I272
I799
tp2725
a(I274
I799
tp2726
a(I271
I799
tp2727
a(I271
I800
tp2728
a(I272
I800
tp2729
a(I273
I800
tp2730
a(I270
I801
tp2731
a(I272
I801
tp2732
a(I269
I800
tp2733
a(I269
I801
tp2734
a(I269
I802
tp2735
a(I270
I802
tp2736
a(I271
I802
tp2737
a(I268
I800
tp2738
a(I268
I801
tp2739
a(I269
I799
tp2740
a(I268
I803
tp2741
a(I269
I803
tp2742
a(I268
I798
tp2743
a(I267
I803
tp2744
a(I267
I804
tp2745
a(I268
I804
tp2746
a(I269
I797
tp2747
a(I266
I802
tp2748
a(I266
I804
tp2749
a(I266
I805
tp2750
a(I270
I796
tp2751
a(I265
I801
tp2752
a(I265
I802
tp2753
a(I266
I801
tp2754
a(I265
I804
tp2755
a(I265
I805
tp2756
a(I264
I803
tp2757
a(I264
I804
tp2758
a(I264
I805
tp2759
a(I263
I802
tp2760
a(I263
I804
tp2761
a(I263
I805
tp2762
a(I262
I803
tp2763
a(I262
I805
tp2764
a(I261
I803
tp2765
asg49
I292
sg50
g3
(g7
S'\xf3{72Y\xd2\xf4?'
p2766
tp2767
Rp2768
sg54
I805
sg55
g3
(g7
S'Lh/\xa1\xbd\x84\x04@'
p2769
tp2770
Rp2771
sa(dp2772
g2
g3
(g7
S'\x02\x1f\xf8\xc1\xc8\x16\x15@'
p2773
tp2774
Rp2775
sg13
I13
sg14
I838
sg15
g3
(g7
S'\xb28\xa0\x83\xb1\xf2\x19@'
p2776
tp2777
Rp2778
sg19
I7
sg20
I18
sg21
(lp2779
(I11
I838
tp2780
a(I11
I839
tp2781
a(I12
I840
tp2782
a(I11
I841
tp2783
a(I12
I841
tp2784
a(I13
I841
tp2785
a(I10
I841
tp2786
a(I14
I841
tp2787
a(I14
I842
tp2788
a(I9
I841
tp2789
a(I15
I841
tp2790
a(I13
I843
tp2791
a(I14
I843
tp2792
a(I15
I843
tp2793
a(I8
I841
tp2794
a(I16
I841
tp2795
a(I12
I843
tp2796
a(I13
I844
tp2797
a(I14
I844
tp2798
a(I15
I844
tp2799
a(I7
I841
tp2800
a(I17
I840
tp2801
a(I17
I841
tp2802
a(I11
I843
tp2803
a(I15
I845
tp2804
a(I18
I840
tp2805
a(I18
I841
tp2806
a(I18
I842
tp2807
a(I10
I843
tp2808
a(I10
I844
tp2809
a(I15
I846
tp2810
a(I19
I839
tp2811
a(I19
I840
tp2812
a(I19
I841
tp2813
a(I19
I842
tp2814
a(I9
I844
tp2815
a(I15
I847
tp2816
a(I16
I847
tp2817
a(I20
I839
tp2818
a(I20
I840
tp2819
a(I20
I841
tp2820
a(I20
I842
tp2821
a(I8
I843
tp2822
a(I8
I844
tp2823
a(I14
I848
tp2824
a(I17
I847
tp2825
a(I21
I839
tp2826
a(I21
I840
tp2827
a(I21
I841
tp2828
a(I21
I842
tp2829
a(I13
I848
tp2830
a(I18
I847
tp2831
a(I22
I839
tp2832
a(I22
I840
tp2833
a(I22
I841
tp2834
a(I22
I842
tp2835
a(I22
I843
tp2836
a(I19
I847
tp2837
a(I20
I847
tp2838
a(I21
I846
tp2839
a(I21
I847
tp2840
a(I21
I848
tp2841
a(I21
I845
tp2842
a(I22
I845
tp2843
a(I22
I846
tp2844
a(I22
I847
tp2845
a(I22
I848
tp2846
a(I22
I849
tp2847
a(I22
I844
tp2848
a(I23
I848
tp2849
a(I23
I849
tp2850
a(I23
I850
tp2851
a(I24
I847
tp2852
a(I23
I851
tp2853
a(I25
I846
tp2854
asg49
I25
sg50
g3
(g7
S'$\xb6\x17o\xef\xcb;@'
p2855
tp2856
Rp2857
sg54
I851
sg55
g3
(g7
S'\xf9\xc5\x92_,\xf9\x15@'
p2858
tp2859
Rp2860
sa.