(lp0
(dp1
S'X2'
p2
I362
sS'width'
p3
I29
sS'points'
p4
(lp5
(I351
I244
tp6
a(I351
I245
tp7
a(I350
I246
tp8
a(I351
I246
tp9
a(I352
I246
tp10
a(I349
I247
tp11
a(I350
I247
tp12
a(I351
I247
tp13
a(I352
I247
tp14
a(I353
I246
tp15
a(I353
I247
tp16
a(I348
I247
tp17
a(I351
I248
tp18
a(I352
I248
tp19
a(I353
I248
tp20
a(I354
I246
tp21
a(I354
I247
tp22
a(I354
I248
tp23
a(I347
I247
tp24
a(I350
I249
tp25
a(I354
I249
tp26
a(I355
I246
tp27
a(I355
I247
tp28
a(I355
I248
tp29
a(I355
I249
tp30
a(I346
I247
tp31
a(I349
I250
tp32
a(I355
I250
tp33
a(I356
I247
tp34
a(I356
I248
tp35
a(I356
I249
tp36
a(I356
I250
tp37
a(I345
I247
tp38
a(I345
I248
tp39
a(I348
I251
tp40
a(I356
I251
tp41
a(I357
I248
tp42
a(I357
I249
tp43
a(I357
I250
tp44
a(I357
I251
tp45
a(I344
I247
tp46
a(I344
I248
tp47
a(I356
I252
tp48
a(I357
I252
tp49
a(I358
I248
tp50
a(I358
I249
tp51
a(I358
I250
tp52
a(I358
I251
tp53
a(I343
I247
tp54
a(I343
I248
tp55
a(I356
I253
tp56
a(I357
I253
tp57
a(I358
I253
tp58
a(I359
I249
tp59
a(I342
I247
tp60
a(I342
I248
tp61
a(I356
I254
tp62
a(I357
I254
tp63
a(I359
I253
tp64
a(I360
I250
tp65
a(I341
I247
tp66
a(I341
I248
tp67
a(I355
I255
tp68
a(I356
I255
tp69
a(I357
I255
tp70
a(I358
I255
tp71
a(I361
I249
tp72
a(I340
I247
tp73
a(I340
I248
tp74
a(I354
I255
tp75
a(I354
I256
tp76
a(I355
I256
tp77
a(I356
I256
tp78
a(I357
I256
tp79
a(I358
I256
tp80
a(I359
I255
tp81
a(I359
I256
tp82
a(I362
I248
tp83
a(I339
I246
tp84
a(I339
I248
tp85
a(I354
I257
tp86
a(I355
I257
tp87
a(I356
I257
tp88
a(I357
I257
tp89
a(I358
I257
tp90
a(I359
I257
tp91
a(I338
I245
tp92
a(I338
I246
tp93
a(I339
I245
tp94
a(I340
I245
tp95
a(I338
I248
tp96
a(I356
I258
tp97
a(I357
I258
tp98
a(I358
I258
tp99
a(I359
I258
tp100
a(I337
I245
tp101
a(I337
I246
tp102
a(I341
I245
tp103
a(I337
I248
tp104
a(I357
I259
tp105
a(I358
I259
tp106
a(I359
I259
tp107
a(I336
I245
tp108
a(I336
I246
tp109
a(I342
I245
tp110
a(I357
I260
tp111
a(I358
I260
tp112
a(I359
I260
tp113
a(I335
I245
tp114
a(I335
I246
tp115
a(I343
I245
tp116
a(I357
I261
tp117
a(I358
I261
tp118
a(I359
I261
tp119
a(I334
I245
tp120
a(I334
I246
tp121
a(I344
I245
tp122
a(I356
I262
tp123
a(I357
I262
tp124
a(I358
I262
tp125
a(I359
I262
tp126
a(I333
I245
tp127
a(I333
I246
tp128
a(I345
I245
tp129
a(I356
I263
tp130
a(I357
I263
tp131
a(I358
I263
tp132
a(I359
I263
tp133
a(I346
I245
tp134
a(I356
I264
tp135
a(I357
I264
tp136
a(I358
I264
tp137
a(I359
I264
tp138
a(I347
I245
tp139
a(I357
I265
tp140
a(I358
I265
tp141
a(I359
I265
tp142
a(I348
I245
tp143
a(I357
I266
tp144
a(I358
I266
tp145
a(I359
I266
tp146
a(I349
I245
tp147
a(I357
I267
tp148
a(I358
I267
tp149
a(I359
I267
tp150
a(I357
I268
tp151
a(I358
I268
tp152
a(I359
I268
tp153
a(I357
I269
tp154
a(I358
I269
tp155
a(I359
I269
tp156
a(I357
I270
tp157
a(I358
I270
tp158
a(I359
I270
tp159
a(I357
I271
tp160
a(I358
I271
tp161
a(I359
I271
tp162
a(I357
I272
tp163
a(I358
I272
tp164
a(I359
I272
tp165
a(I357
I273
tp166
asS'deviation'
p167
cnumpy.core.multiarray
scalar
p168
(cnumpy
dtype
p169
(S'f8'
p170
I0
I1
tp171
Rp172
(I3
S'<'
p173
NNNI-1
I-1
I0
tp174
bS'/\xf3\x84D\xac\x83\x11@'
p175
tp176
Rp177
sS'mean'
p178
g168
(g172
S'\xbd\xe9Moz\xd3\x13@'
p179
tp180
Rp181
sS'X'
p182
I333
sS'Y'
p183
I244
sS'variance'
p184
g168
(g172
S'"H\xbb\xad\t,3@'
p185
tp186
Rp187
sS'Y2'
p188
I273
sS'height'
p189
I29
sa(dp190
g2
I347
sg3
I19
sg4
(lp191
(I344
I263
tp192
a(I343
I264
tp193
a(I344
I264
tp194
a(I342
I264
tp195
a(I345
I265
tp196
a(I341
I264
tp197
a(I341
I265
tp198
a(I346
I266
tp199
a(I340
I265
tp200
a(I347
I267
tp201
a(I339
I266
tp202
a(I338
I265
tp203
a(I338
I266
tp204
a(I339
I265
tp205
a(I339
I267
tp206
a(I340
I266
tp207
a(I340
I267
tp208
a(I337
I266
tp209
a(I339
I268
tp210
a(I340
I268
tp211
a(I336
I266
tp212
a(I339
I269
tp213
a(I340
I269
tp214
a(I335
I266
tp215
a(I339
I270
tp216
a(I340
I270
tp217
a(I334
I266
tp218
a(I334
I267
tp219
a(I339
I271
tp220
a(I340
I271
tp221
a(I333
I267
tp222
a(I338
I272
tp223
a(I339
I272
tp224
a(I332
I267
tp225
a(I337
I272
tp226
a(I338
I273
tp227
a(I340
I273
tp228
a(I331
I267
tp229
a(I331
I268
tp230
a(I336
I272
tp231
a(I341
I273
tp232
a(I330
I268
tp233
a(I330
I269
tp234
a(I331
I269
tp235
a(I335
I272
tp236
a(I342
I273
tp237
a(I342
I274
tp238
a(I329
I268
tp239
a(I329
I269
tp240
a(I329
I270
tp241
a(I330
I270
tp242
a(I334
I272
tp243
a(I343
I274
tp244
a(I328
I269
tp245
a(I328
I270
tp246
a(I329
I271
tp247
a(I330
I271
tp248
a(I331
I271
tp249
a(I333
I271
tp250
a(I333
I272
tp251
a(I344
I274
tp252
a(I332
I271
tp253
asg167
g168
(g172
S'@\x10q\xb7,8\xf5?'
p254
tp255
Rp256
sg178
g168
(g172
S'k\xad\xb5\xd6Zk\x01@'
p257
tp258
Rp259
sg182
I328
sg183
I263
sg184
g168
(g172
S'>\xdb\t\x9b:$\xfc?'
p260
tp261
Rp262
sg188
I274
sg189
I11
sa(dp263
g2
I345
sg3
I22
sg4
(lp264
(I323
I302
tp265
a(I323
I303
tp266
a(I323
I304
tp267
a(I323
I305
tp268
a(I323
I306
tp269
a(I323
I307
tp270
a(I323
I308
tp271
a(I324
I308
tp272
a(I324
I309
tp273
a(I323
I310
tp274
a(I324
I310
tp275
a(I323
I311
tp276
a(I324
I311
tp277
a(I325
I311
tp278
a(I323
I312
tp279
a(I324
I312
tp280
a(I325
I312
tp281
a(I326
I311
tp282
a(I326
I312
tp283
a(I323
I313
tp284
a(I327
I311
tp285
a(I328
I310
tp286
a(I328
I311
tp287
a(I329
I310
tp288
a(I329
I311
tp289
a(I330
I309
tp290
a(I330
I310
tp291
a(I331
I309
tp292
a(I331
I310
tp293
a(I332
I309
tp294
a(I332
I310
tp295
a(I333
I308
tp296
a(I333
I309
tp297
a(I334
I308
tp298
a(I334
I309
tp299
a(I335
I308
tp300
a(I336
I307
tp301
a(I336
I308
tp302
a(I337
I307
tp303
a(I337
I308
tp304
a(I338
I306
tp305
a(I338
I307
tp306
a(I339
I306
tp307
a(I340
I306
tp308
a(I341
I305
tp309
a(I341
I306
tp310
a(I342
I305
tp311
a(I342
I306
tp312
a(I343
I304
tp313
a(I343
I305
tp314
a(I344
I304
tp315
a(I344
I305
tp316
a(I345
I304
tp317
asg167
g168
(g172
S'\x91\xa4x\xc6\xeb\xe4\xe8?'
p318
tp319
Rp320
sg178
g168
(g172
S'\xcb>\x87\xd4\x04\xe3\xfd?'
p321
tp322
Rp323
sg182
I323
sg183
I302
sg184
g168
(g172
S'\xdd]JP\xc7]\xe3?'
p324
tp325
Rp326
sg188
I313
sg189
I11
sa(dp327
g2
I345
sg3
I22
sg4
(lp328
(I323
I319
tp329
a(I323
I320
tp330
a(I323
I321
tp331
a(I324
I321
tp332
a(I323
I322
tp333
a(I324
I322
tp334
a(I323
I323
tp335
a(I324
I323
tp336
a(I323
I324
tp337
a(I324
I324
tp338
a(I323
I325
tp339
a(I324
I325
tp340
a(I323
I326
tp341
a(I324
I326
tp342
a(I323
I327
tp343
a(I324
I327
tp344
a(I323
I328
tp345
a(I324
I328
tp346
a(I325
I328
tp347
a(I323
I329
tp348
a(I324
I329
tp349
a(I325
I329
tp350
a(I326
I328
tp351
a(I326
I329
tp352
a(I324
I330
tp353
a(I325
I330
tp354
a(I327
I328
tp355
a(I327
I329
tp356
a(I323
I330
tp357
a(I328
I328
tp358
a(I328
I329
tp359
a(I329
I327
tp360
a(I329
I328
tp361
a(I330
I327
tp362
a(I330
I328
tp363
a(I331
I327
tp364
a(I332
I326
tp365
a(I332
I327
tp366
a(I333
I326
tp367
a(I333
I327
tp368
a(I334
I325
tp369
a(I334
I326
tp370
a(I335
I325
tp371
a(I335
I326
tp372
a(I336
I325
tp373
a(I337
I324
tp374
a(I337
I325
tp375
a(I338
I324
tp376
a(I339
I324
tp377
a(I340
I323
tp378
a(I340
I324
tp379
a(I341
I323
tp380
a(I342
I322
tp381
a(I342
I323
tp382
a(I343
I322
tp383
a(I343
I323
tp384
a(I344
I321
tp385
a(I344
I322
tp386
a(I345
I321
tp387
asg167
g168
(g172
S'-\xec\xcb\x1fi\xf8\xfb?'
p388
tp389
Rp390
sg178
g168
(g172
S"\r'u_\x1e[\x01@"
p391
tp392
Rp393
sg182
I323
sg183
I319
sg184
g168
(g172
S'"Pn\xc4\xb9r\x08@'
p394
tp395
Rp396
sg188
I330
sg189
I11
sa(dp397
g2
I534
sg3
I28
sg4
(lp398
(I506
I486
tp399
a(I507
I487
tp400
a(I508
I488
tp401
a(I509
I489
tp402
a(I510
I490
tp403
a(I511
I491
tp404
a(I512
I492
tp405
a(I513
I493
tp406
a(I514
I494
tp407
a(I514
I495
tp408
a(I515
I493
tp409
a(I515
I494
tp410
a(I515
I495
tp411
a(I514
I496
tp412
a(I515
I496
tp413
a(I515
I492
tp414
a(I516
I492
tp415
a(I516
I493
tp416
a(I516
I494
tp417
a(I516
I495
tp418
a(I516
I496
tp419
a(I514
I497
tp420
a(I515
I497
tp421
a(I516
I497
tp422
a(I515
I491
tp423
a(I516
I491
tp424
a(I517
I493
tp425
a(I517
I494
tp426
a(I517
I495
tp427
a(I517
I496
tp428
a(I517
I497
tp429
a(I514
I498
tp430
a(I515
I498
tp431
a(I516
I498
tp432
a(I517
I498
tp433
a(I518
I496
tp434
a(I518
I497
tp435
a(I514
I499
tp436
a(I515
I499
tp437
a(I516
I499
tp438
a(I517
I499
tp439
a(I519
I497
tp440
a(I519
I498
tp441
a(I514
I500
tp442
a(I515
I500
tp443
a(I516
I500
tp444
a(I520
I496
tp445
a(I520
I497
tp446
a(I520
I498
tp447
a(I520
I499
tp448
a(I515
I501
tp449
a(I515
I502
tp450
a(I515
I503
tp451
a(I516
I503
tp452
a(I514
I504
tp453
a(I515
I504
tp454
a(I516
I504
tp455
a(I517
I504
tp456
a(I514
I505
tp457
a(I515
I505
tp458
a(I516
I505
tp459
a(I517
I505
tp460
a(I518
I505
tp461
a(I514
I506
tp462
a(I515
I506
tp463
a(I516
I506
tp464
a(I517
I506
tp465
a(I518
I506
tp466
a(I519
I506
tp467
a(I514
I507
tp468
a(I515
I507
tp469
a(I516
I507
tp470
a(I517
I507
tp471
a(I518
I507
tp472
a(I519
I507
tp473
a(I520
I506
tp474
a(I520
I507
tp475
a(I514
I508
tp476
a(I515
I508
tp477
a(I516
I508
tp478
a(I517
I508
tp479
a(I518
I508
tp480
a(I519
I508
tp481
a(I520
I508
tp482
a(I514
I509
tp483
a(I515
I509
tp484
a(I516
I509
tp485
a(I517
I509
tp486
a(I518
I509
tp487
a(I519
I509
tp488
a(I520
I509
tp489
a(I521
I509
tp490
a(I515
I510
tp491
a(I516
I510
tp492
a(I517
I510
tp493
a(I518
I510
tp494
a(I519
I510
tp495
a(I520
I510
tp496
a(I521
I510
tp497
a(I522
I509
tp498
a(I522
I510
tp499
a(I517
I511
tp500
a(I519
I511
tp501
a(I520
I511
tp502
a(I521
I511
tp503
a(I522
I511
tp504
a(I523
I509
tp505
a(I523
I510
tp506
a(I523
I511
tp507
a(I519
I512
tp508
a(I520
I512
tp509
a(I521
I512
tp510
a(I524
I508
tp511
a(I524
I509
tp512
a(I524
I510
tp513
a(I524
I511
tp514
a(I525
I508
tp515
a(I525
I509
tp516
a(I525
I510
tp517
a(I525
I511
tp518
a(I526
I507
tp519
a(I526
I510
tp520
a(I526
I511
tp521
a(I527
I506
tp522
a(I527
I510
tp523
a(I528
I505
tp524
a(I528
I510
tp525
a(I529
I509
tp526
a(I530
I508
tp527
a(I530
I509
tp528
a(I530
I507
tp529
a(I531
I509
tp530
a(I531
I510
tp531
a(I532
I510
tp532
a(I530
I511
tp533
a(I532
I511
tp534
a(I533
I511
tp535
a(I529
I512
tp536
a(I534
I511
tp537
asg167
g168
(g172
S'\xa8]\x10mG\xea\x0b@'
p538
tp539
Rp540
sg178
g168
(g172
S'\xb8T\xb6w\x1d\xd0\x15@'
p541
tp542
Rp543
sg182
I506
sg183
I486
sg184
g168
(g172
S'\xd2\x1aF\xbd\x0bZ(@'
p544
tp545
Rp546
sg188
I512
sg189
I26
sa(dp547
g2
I329
sg3
I44
sg4
(lp548
(I285
I612
tp549
a(I285
I613
tp550
a(I285
I614
tp551
a(I285
I615
tp552
a(I285
I616
tp553
a(I286
I616
tp554
a(I285
I617
tp555
a(I286
I617
tp556
a(I286
I618
tp557
a(I286
I619
tp558
a(I287
I619
tp559
a(I287
I620
tp560
a(I288
I618
tp561
a(I288
I620
tp562
a(I288
I621
tp563
a(I289
I617
tp564
a(I289
I619
tp565
a(I289
I621
tp566
a(I289
I622
tp567
a(I290
I618
tp568
a(I290
I620
tp569
a(I290
I622
tp570
a(I291
I617
tp571
a(I291
I619
tp572
a(I291
I621
tp573
a(I291
I623
tp574
a(I292
I616
tp575
a(I292
I618
tp576
a(I292
I620
tp577
a(I292
I623
tp578
a(I293
I615
tp579
a(I293
I619
tp580
a(I293
I624
tp581
a(I292
I614
tp582
a(I294
I616
tp583
a(I294
I619
tp584
a(I294
I620
tp585
a(I294
I624
tp586
a(I295
I617
tp587
a(I295
I623
tp588
a(I295
I625
tp589
a(I296
I618
tp590
a(I296
I622
tp591
a(I296
I625
tp592
a(I297
I619
tp593
a(I297
I626
tp594
a(I298
I620
tp595
a(I298
I626
tp596
a(I299
I619
tp597
a(I299
I620
tp598
a(I299
I626
tp599
a(I299
I618
tp600
a(I300
I618
tp601
a(I300
I619
tp602
a(I300
I620
tp603
a(I300
I625
tp604
a(I300
I627
tp605
a(I299
I617
tp606
a(I300
I617
tp607
a(I301
I618
tp608
a(I301
I619
tp609
a(I301
I620
tp610
a(I301
I627
tp611
a(I302
I620
tp612
a(I302
I627
tp613
a(I303
I619
tp614
a(I303
I628
tp615
a(I304
I618
tp616
a(I304
I619
tp617
a(I304
I620
tp618
a(I304
I628
tp619
a(I305
I618
tp620
a(I305
I619
tp621
a(I305
I620
tp622
a(I303
I621
tp623
a(I304
I621
tp624
a(I305
I621
tp625
a(I305
I628
tp626
a(I306
I619
tp627
a(I306
I620
tp628
a(I306
I621
tp629
a(I302
I621
tp630
a(I304
I622
tp631
a(I305
I622
tp632
a(I306
I622
tp633
a(I306
I628
tp634
a(I306
I629
tp635
a(I307
I619
tp636
a(I307
I620
tp637
a(I307
I621
tp638
a(I307
I622
tp639
a(I305
I623
tp640
a(I306
I623
tp641
a(I307
I623
tp642
a(I307
I629
tp643
a(I308
I619
tp644
a(I308
I620
tp645
a(I308
I621
tp646
a(I308
I622
tp647
a(I308
I623
tp648
a(I308
I629
tp649
a(I309
I619
tp650
a(I309
I620
tp651
a(I309
I621
tp652
a(I309
I622
tp653
a(I309
I623
tp654
a(I309
I629
tp655
a(I310
I619
tp656
a(I310
I620
tp657
a(I310
I621
tp658
a(I310
I622
tp659
a(I310
I623
tp660
a(I310
I628
tp661
a(I310
I629
tp662
a(I311
I620
tp663
a(I311
I621
tp664
a(I311
I622
tp665
a(I311
I623
tp666
a(I311
I624
tp667
a(I311
I630
tp668
a(I312
I620
tp669
a(I312
I621
tp670
a(I312
I622
tp671
a(I312
I623
tp672
a(I312
I624
tp673
a(I312
I630
tp674
a(I313
I620
tp675
a(I313
I621
tp676
a(I313
I622
tp677
a(I313
I623
tp678
a(I313
I624
tp679
a(I313
I630
tp680
a(I314
I620
tp681
a(I314
I621
tp682
a(I314
I624
tp683
a(I314
I630
tp684
a(I315
I621
tp685
a(I315
I623
tp686
a(I315
I631
tp687
a(I316
I621
tp688
a(I316
I622
tp689
a(I314
I631
tp690
a(I314
I632
tp691
a(I315
I632
tp692
a(I316
I631
tp693
a(I317
I621
tp694
a(I315
I633
tp695
a(I317
I631
tp696
a(I318
I630
tp697
a(I318
I631
tp698
a(I318
I629
tp699
a(I319
I629
tp700
a(I319
I630
tp701
a(I319
I631
tp702
a(I320
I630
tp703
a(I320
I631
tp704
a(I321
I632
tp705
a(I322
I632
tp706
a(I323
I631
tp707
a(I323
I632
tp708
a(I324
I631
tp709
a(I324
I632
tp710
a(I325
I633
tp711
a(I326
I633
tp712
a(I327
I632
tp713
a(I327
I633
tp714
a(I326
I631
tp715
a(I328
I631
tp716
a(I328
I633
tp717
a(I327
I630
tp718
a(I329
I633
tp719
asg167
g168
(g172
S'J\xc2\xab`\x92>\x06@'
p720
tp721
Rp722
sg178
g168
(g172
S'\xd2\\Fs\x19\xcd\r@'
p723
tp724
Rp725
sg182
I285
sg183
I612
sg184
g168
(g172
S'\xf5\xaf\x80=\x07\xed\x1e@'
p726
tp727
Rp728
sg188
I633
sg189
I21
sa(dp729
g2
I177
sg3
I30
sg4
(lp730
(I153
I689
tp731
a(I153
I690
tp732
a(I154
I690
tp733
a(I154
I691
tp734
a(I155
I689
tp735
a(I155
I691
tp736
a(I155
I692
tp737
a(I156
I692
tp738
a(I154
I693
tp739
a(I156
I693
tp740
a(I157
I691
tp741
a(I157
I692
tp742
a(I157
I693
tp743
a(I154
I694
tp744
a(I155
I693
tp745
a(I157
I694
tp746
a(I158
I691
tp747
a(I158
I692
tp748
a(I158
I693
tp749
a(I158
I694
tp750
a(I154
I695
tp751
a(I156
I695
tp752
a(I157
I695
tp753
a(I159
I692
tp754
a(I159
I694
tp755
a(I153
I696
tp756
a(I155
I696
tp757
a(I157
I696
tp758
a(I160
I693
tp759
a(I160
I694
tp760
a(I152
I695
tp761
a(I152
I696
tp762
a(I152
I697
tp763
a(I154
I697
tp764
a(I157
I697
tp765
a(I161
I694
tp766
a(I151
I695
tp767
a(I151
I696
tp768
a(I151
I697
tp769
a(I151
I698
tp770
a(I152
I698
tp771
a(I153
I698
tp772
a(I154
I698
tp773
a(I157
I698
tp774
a(I162
I695
tp775
a(I150
I696
tp776
a(I150
I697
tp777
a(I150
I698
tp778
a(I152
I699
tp779
a(I153
I699
tp780
a(I154
I699
tp781
a(I155
I699
tp782
a(I156
I699
tp783
a(I157
I699
tp784
a(I161
I696
tp785
a(I163
I696
tp786
a(I149
I695
tp787
a(I151
I700
tp788
a(I153
I700
tp789
a(I154
I700
tp790
a(I155
I700
tp791
a(I156
I700
tp792
a(I157
I700
tp793
a(I158
I700
tp794
a(I164
I696
tp795
a(I164
I697
tp796
a(I148
I695
tp797
a(I148
I696
tp798
a(I150
I701
tp799
a(I153
I701
tp800
a(I154
I701
tp801
a(I155
I701
tp802
a(I156
I701
tp803
a(I157
I701
tp804
a(I158
I701
tp805
a(I159
I701
tp806
a(I165
I697
tp807
a(I163
I698
tp808
a(I147
I696
tp809
a(I155
I702
tp810
a(I156
I702
tp811
a(I157
I702
tp812
a(I166
I698
tp813
a(I155
I703
tp814
a(I156
I703
tp815
a(I157
I703
tp816
a(I158
I703
tp817
a(I165
I699
tp818
a(I166
I699
tp819
a(I167
I699
tp820
a(I154
I704
tp821
a(I164
I700
tp822
a(I165
I700
tp823
a(I166
I700
tp824
a(I167
I700
tp825
a(I153
I703
tp826
a(I153
I705
tp827
a(I155
I705
tp828
a(I164
I701
tp829
a(I164
I699
tp830
a(I165
I701
tp831
a(I166
I701
tp832
a(I167
I701
tp833
a(I152
I705
tp834
a(I152
I706
tp835
a(I153
I706
tp836
a(I154
I706
tp837
a(I155
I706
tp838
a(I156
I705
tp839
a(I163
I702
tp840
a(I163
I699
tp841
a(I166
I702
tp842
a(I167
I702
tp843
a(I168
I702
tp844
a(I151
I705
tp845
a(I151
I706
tp846
a(I151
I707
tp847
a(I152
I707
tp848
a(I153
I707
tp849
a(I154
I707
tp850
a(I156
I707
tp851
a(I157
I705
tp852
a(I163
I703
tp853
a(I162
I698
tp854
a(I166
I703
tp855
a(I167
I703
tp856
a(I168
I703
tp857
a(I169
I703
tp858
a(I150
I705
tp859
a(I150
I706
tp860
a(I150
I707
tp861
a(I155
I708
tp862
a(I156
I708
tp863
a(I157
I707
tp864
a(I157
I708
tp865
a(I163
I704
tp866
a(I164
I704
tp867
a(I166
I704
tp868
a(I167
I704
tp869
a(I168
I704
tp870
a(I169
I704
tp871
a(I170
I704
tp872
a(I154
I709
tp873
a(I155
I709
tp874
a(I156
I709
tp875
a(I157
I709
tp876
a(I158
I707
tp877
a(I158
I708
tp878
a(I158
I709
tp879
a(I164
I705
tp880
a(I165
I705
tp881
a(I166
I705
tp882
a(I167
I705
tp883
a(I169
I705
tp884
a(I170
I705
tp885
a(I171
I705
tp886
a(I153
I709
tp887
a(I153
I710
tp888
a(I154
I710
tp889
a(I155
I710
tp890
a(I159
I707
tp891
a(I159
I708
tp892
a(I159
I709
tp893
a(I159
I710
tp894
a(I165
I706
tp895
a(I166
I706
tp896
a(I167
I706
tp897
a(I170
I706
tp898
a(I171
I706
tp899
a(I172
I706
tp900
a(I152
I709
tp901
a(I152
I710
tp902
a(I153
I711
tp903
a(I160
I707
tp904
a(I160
I708
tp905
a(I160
I709
tp906
a(I166
I707
tp907
a(I167
I707
tp908
a(I171
I707
tp909
a(I172
I707
tp910
a(I173
I707
tp911
a(I151
I709
tp912
a(I151
I710
tp913
a(I151
I711
tp914
a(I161
I707
tp915
a(I161
I708
tp916
a(I161
I709
tp917
a(I172
I708
tp918
a(I173
I708
tp919
a(I174
I708
tp920
a(I150
I709
tp921
a(I162
I706
tp922
a(I162
I707
tp923
a(I162
I708
tp924
a(I162
I709
tp925
a(I173
I709
tp926
a(I174
I709
tp927
a(I175
I709
tp928
a(I149
I710
tp929
a(I163
I708
tp930
a(I163
I709
tp931
a(I163
I710
tp932
a(I174
I710
tp933
a(I175
I710
tp934
a(I176
I710
tp935
a(I149
I711
tp936
a(I164
I709
tp937
a(I164
I710
tp938
a(I175
I711
tp939
a(I176
I711
tp940
a(I177
I711
tp941
a(I174
I712
tp942
a(I175
I712
tp943
a(I176
I712
tp944
a(I177
I712
tp945
a(I173
I712
tp946
a(I173
I713
tp947
a(I174
I713
tp948
a(I175
I713
tp949
a(I172
I712
tp950
a(I172
I713
tp951
a(I172
I714
tp952
a(I173
I714
tp953
a(I174
I714
tp954
a(I175
I714
tp955
a(I176
I714
tp956
a(I172
I715
tp957
a(I173
I715
tp958
a(I174
I715
tp959
a(I175
I715
tp960
a(I176
I715
tp961
a(I177
I714
tp962
a(I177
I715
tp963
a(I172
I716
tp964
a(I173
I716
tp965
a(I174
I716
tp966
a(I175
I716
tp967
a(I176
I716
tp968
a(I177
I716
tp969
asg167
g168
(g172
S'\xd7\x19\x95\x03oM\x10@'
p970
tp971
Rp972
sg178
g168
(g172
S'\xfbJ\xe6gQ\x8c\x17@'
p973
tp974
Rp975
sg182
I147
sg183
I689
sg184
g168
(g172
S'|\xf0\xae\xc6T\x9c0@'
p976
tp977
Rp978
sg188
I716
sg189
I27
sa(dp979
g2
I276
sg3
I25
sg4
(lp980
(I253
I696
tp981
a(I252
I697
tp982
a(I253
I697
tp983
a(I251
I698
tp984
a(I254
I698
tp985
a(I251
I699
tp986
a(I253
I699
tp987
a(I254
I699
tp988
a(I255
I698
tp989
a(I255
I699
tp990
a(I256
I698
tp991
a(I256
I699
tp992
a(I257
I699
tp993
a(I258
I699
tp994
a(I258
I700
tp995
a(I257
I700
tp996
a(I259
I699
tp997
a(I259
I700
tp998
a(I257
I701
tp999
a(I256
I701
tp1000
a(I260
I699
tp1001
a(I260
I700
tp1002
a(I257
I702
tp1003
a(I255
I701
tp1004
a(I257
I703
tp1005
a(I254
I701
tp1006
a(I254
I702
tp1007
a(I253
I701
tp1008
a(I253
I702
tp1009
a(I255
I703
tp1010
a(I252
I701
tp1011
a(I252
I702
tp1012
a(I256
I703
tp1013
a(I257
I704
tp1014
a(I258
I704
tp1015
a(I259
I704
tp1016
a(I259
I705
tp1017
a(I260
I704
tp1018
a(I260
I705
tp1019
a(I260
I706
tp1020
a(I261
I705
tp1021
a(I261
I706
tp1022
a(I261
I707
tp1023
a(I262
I705
tp1024
a(I262
I706
tp1025
a(I262
I707
tp1026
a(I262
I708
tp1027
a(I263
I705
tp1028
a(I263
I706
tp1029
a(I263
I707
tp1030
a(I263
I708
tp1031
a(I263
I709
tp1032
a(I264
I706
tp1033
a(I264
I707
tp1034
a(I264
I709
tp1035
a(I265
I706
tp1036
a(I265
I708
tp1037
a(I265
I709
tp1038
a(I265
I710
tp1039
a(I266
I708
tp1040
a(I266
I709
tp1041
a(I266
I710
tp1042
a(I266
I711
tp1043
a(I267
I709
tp1044
a(I267
I710
tp1045
a(I267
I711
tp1046
a(I267
I712
tp1047
a(I268
I709
tp1048
a(I268
I710
tp1049
a(I268
I711
tp1050
a(I268
I712
tp1051
a(I269
I710
tp1052
a(I269
I711
tp1053
a(I269
I712
tp1054
a(I269
I713
tp1055
a(I270
I710
tp1056
a(I270
I711
tp1057
a(I270
I712
tp1058
a(I270
I713
tp1059
a(I270
I714
tp1060
a(I271
I710
tp1061
a(I271
I711
tp1062
a(I271
I712
tp1063
a(I271
I713
tp1064
a(I271
I714
tp1065
a(I272
I709
tp1066
a(I272
I710
tp1067
a(I272
I711
tp1068
a(I272
I712
tp1069
a(I272
I714
tp1070
a(I272
I715
tp1071
a(I271
I708
tp1072
a(I272
I708
tp1073
a(I273
I708
tp1074
a(I273
I709
tp1075
a(I273
I710
tp1076
a(I273
I711
tp1077
a(I273
I712
tp1078
a(I273
I713
tp1079
a(I273
I714
tp1080
a(I273
I715
tp1081
a(I270
I707
tp1082
a(I270
I708
tp1083
a(I273
I707
tp1084
a(I274
I707
tp1085
a(I274
I714
tp1086
a(I274
I715
tp1087
a(I273
I706
tp1088
a(I275
I706
tp1089
a(I275
I714
tp1090
a(I275
I715
tp1091
a(I275
I716
tp1092
a(I272
I705
tp1093
a(I273
I705
tp1094
a(I276
I716
tp1095
a(I271
I704
tp1096
a(I272
I704
tp1097
a(I273
I704
tp1098
a(I270
I703
tp1099
a(I270
I704
tp1100
a(I271
I703
tp1101
a(I272
I703
tp1102
a(I273
I703
tp1103
a(I269
I702
tp1104
a(I269
I703
tp1105
a(I269
I704
tp1106
a(I268
I703
tp1107
a(I268
I704
tp1108
a(I267
I703
tp1109
a(I267
I704
tp1110
a(I266
I703
tp1111
a(I266
I704
tp1112
a(I265
I703
tp1113
a(I265
I704
tp1114
a(I264
I703
tp1115
a(I263
I703
tp1116
a(I262
I703
tp1117
a(I261
I703
tp1118
asg167
g168
(g172
S'?\xf9\x8f\xeb\x1eZ\x0c@'
p1119
tp1120
Rp1121
sg178
g168
(g172
S'\xe6\xda\x81\xb9v`\x12@'
p1122
tp1123
Rp1124
sg182
I251
sg183
I696
sg184
g168
(g172
S'|\xdeF\xea\xb3\x1e)@'
p1125
tp1126
Rp1127
sg188
I716
sg189
I20
sa(dp1128
g2
I301
sg3
I16
sg4
(lp1129
(I295
I748
tp1130
a(I294
I749
tp1131
a(I295
I749
tp1132
a(I296
I748
tp1133
a(I297
I749
tp1134
a(I297
I748
tp1135
a(I297
I750
tp1136
a(I298
I748
tp1137
a(I298
I749
tp1138
a(I298
I750
tp1139
a(I296
I751
tp1140
a(I297
I751
tp1141
a(I298
I751
tp1142
a(I299
I749
tp1143
a(I299
I750
tp1144
a(I299
I751
tp1145
a(I295
I751
tp1146
a(I295
I752
tp1147
a(I296
I752
tp1148
a(I297
I752
tp1149
a(I298
I752
tp1150
a(I299
I752
tp1151
a(I300
I750
tp1152
a(I300
I751
tp1153
a(I300
I752
tp1154
a(I295
I753
tp1155
a(I296
I753
tp1156
a(I297
I753
tp1157
a(I298
I753
tp1158
a(I299
I753
tp1159
a(I300
I753
tp1160
a(I301
I752
tp1161
a(I294
I754
tp1162
a(I301
I753
tp1163
a(I293
I755
tp1164
a(I292
I756
tp1165
a(I291
I757
tp1166
a(I290
I758
tp1167
a(I289
I759
tp1168
a(I288
I760
tp1169
a(I287
I761
tp1170
a(I286
I762
tp1171
a(I285
I763
tp1172
asg167
g168
(g172
S'\xb3\xe4\xfc\xfd\xfd\xbe\x14@'
p1173
tp1174
Rp1175
sg178
g168
(g172
S'w\xc4\x1dqG\xdc\x19@'
p1176
tp1177
Rp1178
sg182
I285
sg183
I748
sg184
g168
(g172
S'\x16r\x08\xdbb\xe6:@'
p1179
tp1180
Rp1181
sg188
I763
sg189
I15
sa(dp1182
g2
I499
sg3
I13
sg4
(lp1183
(I486
I767
tp1184
a(I487
I767
tp1185
a(I488
I767
tp1186
a(I489
I768
tp1187
a(I488
I769
tp1188
a(I489
I769
tp1189
a(I490
I769
tp1190
a(I487
I770
tp1191
a(I488
I770
tp1192
a(I489
I770
tp1193
a(I490
I770
tp1194
a(I491
I769
tp1195
a(I491
I770
tp1196
a(I486
I771
tp1197
a(I487
I771
tp1198
a(I489
I771
tp1199
a(I490
I771
tp1200
a(I491
I771
tp1201
a(I492
I770
tp1202
a(I492
I771
tp1203
a(I493
I770
tp1204
a(I493
I771
tp1205
a(I493
I772
tp1206
a(I494
I770
tp1207
a(I494
I771
tp1208
a(I494
I772
tp1209
a(I494
I773
tp1210
a(I495
I770
tp1211
a(I495
I771
tp1212
a(I495
I772
tp1213
a(I495
I773
tp1214
a(I494
I774
tp1215
a(I495
I774
tp1216
a(I496
I771
tp1217
a(I496
I772
tp1218
a(I496
I773
tp1219
a(I496
I774
tp1220
a(I494
I775
tp1221
a(I495
I775
tp1222
a(I497
I771
tp1223
a(I497
I772
tp1224
a(I497
I773
tp1225
a(I495
I776
tp1226
a(I498
I771
tp1227
a(I498
I772
tp1228
a(I495
I777
tp1229
a(I496
I777
tp1230
a(I499
I771
tp1231
a(I499
I772
tp1232
a(I496
I778
tp1233
a(I497
I776
tp1234
a(I497
I777
tp1235
a(I497
I778
tp1236
a(I498
I775
tp1237
a(I498
I777
tp1238
a(I498
I778
tp1239
a(I499
I774
tp1240
a(I499
I777
tp1241
a(I499
I778
tp1242
asg167
g168
(g172
S'\x90\x81\x96h\xce\xe1\xf2?'
p1243
tp1244
Rp1245
sg178
g168
(g172
S'#h8\xa9\xfb\xf2\x08@'
p1246
tp1247
Rp1248
sg182
I486
sg183
I767
sg184
g168
(g172
S'P\xf4\xf62\x83H\xf6?'
p1249
tp1250
Rp1251
sg188
I778
sg189
I11
sa(dp1252
g2
I194
sg3
I25
sg4
(lp1253
(I189
I970
tp1254
a(I189
I971
tp1255
a(I189
I972
tp1256
a(I188
I973
tp1257
a(I189
I973
tp1258
a(I187
I974
tp1259
a(I188
I974
tp1260
a(I189
I974
tp1261
a(I186
I974
tp1262
a(I186
I975
tp1263
a(I187
I975
tp1264
a(I188
I975
tp1265
a(I189
I975
tp1266
a(I190
I975
tp1267
a(I185
I975
tp1268
a(I185
I976
tp1269
a(I186
I976
tp1270
a(I187
I976
tp1271
a(I188
I976
tp1272
a(I189
I976
tp1273
a(I190
I976
tp1274
a(I191
I975
tp1275
a(I191
I976
tp1276
a(I184
I976
tp1277
a(I184
I977
tp1278
a(I185
I977
tp1279
a(I186
I977
tp1280
a(I187
I977
tp1281
a(I188
I977
tp1282
a(I189
I977
tp1283
a(I190
I977
tp1284
a(I191
I977
tp1285
a(I192
I977
tp1286
a(I183
I976
tp1287
a(I183
I977
tp1288
a(I183
I978
tp1289
a(I184
I978
tp1290
a(I185
I978
tp1291
a(I186
I978
tp1292
a(I187
I978
tp1293
a(I188
I978
tp1294
a(I189
I978
tp1295
a(I190
I978
tp1296
a(I191
I978
tp1297
a(I182
I976
tp1298
a(I182
I977
tp1299
a(I182
I978
tp1300
a(I182
I979
tp1301
a(I183
I979
tp1302
a(I184
I979
tp1303
a(I185
I979
tp1304
a(I186
I979
tp1305
a(I187
I979
tp1306
a(I188
I979
tp1307
a(I189
I979
tp1308
a(I190
I979
tp1309
a(I191
I979
tp1310
a(I192
I979
tp1311
a(I181
I976
tp1312
a(I181
I977
tp1313
a(I181
I978
tp1314
a(I181
I979
tp1315
a(I181
I980
tp1316
a(I182
I980
tp1317
a(I183
I980
tp1318
a(I184
I980
tp1319
a(I185
I980
tp1320
a(I186
I980
tp1321
a(I187
I980
tp1322
a(I188
I980
tp1323
a(I189
I980
tp1324
a(I190
I980
tp1325
a(I191
I980
tp1326
a(I192
I980
tp1327
a(I193
I980
tp1328
a(I180
I976
tp1329
a(I180
I977
tp1330
a(I180
I978
tp1331
a(I180
I979
tp1332
a(I180
I980
tp1333
a(I180
I981
tp1334
a(I181
I981
tp1335
a(I182
I981
tp1336
a(I183
I981
tp1337
a(I184
I981
tp1338
a(I185
I981
tp1339
a(I186
I981
tp1340
a(I187
I981
tp1341
a(I188
I981
tp1342
a(I189
I981
tp1343
a(I190
I981
tp1344
a(I191
I981
tp1345
a(I192
I981
tp1346
a(I193
I981
tp1347
a(I194
I981
tp1348
a(I179
I976
tp1349
a(I179
I977
tp1350
a(I179
I978
tp1351
a(I179
I979
tp1352
a(I179
I980
tp1353
a(I179
I982
tp1354
a(I178
I977
tp1355
a(I178
I978
tp1356
a(I178
I979
tp1357
a(I180
I983
tp1358
a(I177
I977
tp1359
a(I177
I978
tp1360
a(I177
I979
tp1361
a(I181
I984
tp1362
a(I176
I977
tp1363
a(I176
I978
tp1364
a(I182
I985
tp1365
a(I175
I977
tp1366
a(I175
I978
tp1367
a(I183
I986
tp1368
a(I174
I977
tp1369
a(I173
I977
tp1370
a(I173
I978
tp1371
a(I172
I977
tp1372
a(I172
I978
tp1373
a(I171
I977
tp1374
a(I171
I978
tp1375
a(I170
I977
tp1376
a(I170
I978
tp1377
a(I169
I977
tp1378
a(I169
I978
tp1379
asg167
g168
(g172
S'\x08meIB\xe4\x02@'
p1380
tp1381
Rp1382
sg178
g168
(g172
S'\xcb\xb2,\xcb\xb2,\x17@'
p1383
tp1384
Rp1385
sg182
I169
sg183
I970
sg184
g168
(g172
S'\xcb\x9eb\x87MN\x16@'
p1386
tp1387
Rp1388
sg188
I986
sg189
I16
sa.